
bomb:     file format elf32-i386


Disassembly of section .init:

080486f4 <_init>:
 80486f4:	53                   	push   %ebx
 80486f5:	83 ec 08             	sub    $0x8,%esp
 80486f8:	e8 13 02 00 00       	call   8048910 <__x86.get_pc_thunk.bx>
 80486fd:	81 c3 03 39 00 00    	add    $0x3903,%ebx
 8048703:	8b 83 fc ff ff ff    	mov    -0x4(%ebx),%eax
 8048709:	85 c0                	test   %eax,%eax
 804870b:	74 05                	je     8048712 <_init+0x1e>
 804870d:	e8 be 01 00 00       	call   80488d0 <__gmon_start__@plt>
 8048712:	83 c4 08             	add    $0x8,%esp
 8048715:	5b                   	pop    %ebx
 8048716:	c3                   	ret    

Disassembly of section .plt:

08048720 <.plt>:
 8048720:	ff 35 04 c0 04 08    	pushl  0x804c004
 8048726:	ff 25 08 c0 04 08    	jmp    *0x804c008
 804872c:	00 00                	add    %al,(%eax)
	...

08048730 <read@plt>:
 8048730:	ff 25 0c c0 04 08    	jmp    *0x804c00c
 8048736:	68 00 00 00 00       	push   $0x0
 804873b:	e9 e0 ff ff ff       	jmp    8048720 <.plt>

08048740 <fflush@plt>:
 8048740:	ff 25 10 c0 04 08    	jmp    *0x804c010
 8048746:	68 08 00 00 00       	push   $0x8
 804874b:	e9 d0 ff ff ff       	jmp    8048720 <.plt>

08048750 <fgets@plt>:
 8048750:	ff 25 14 c0 04 08    	jmp    *0x804c014
 8048756:	68 10 00 00 00       	push   $0x10
 804875b:	e9 c0 ff ff ff       	jmp    8048720 <.plt>

08048760 <signal@plt>:
 8048760:	ff 25 18 c0 04 08    	jmp    *0x804c018
 8048766:	68 18 00 00 00       	push   $0x18
 804876b:	e9 b0 ff ff ff       	jmp    8048720 <.plt>

08048770 <sleep@plt>:
 8048770:	ff 25 1c c0 04 08    	jmp    *0x804c01c
 8048776:	68 20 00 00 00       	push   $0x20
 804877b:	e9 a0 ff ff ff       	jmp    8048720 <.plt>

08048780 <alarm@plt>:
 8048780:	ff 25 20 c0 04 08    	jmp    *0x804c020
 8048786:	68 28 00 00 00       	push   $0x28
 804878b:	e9 90 ff ff ff       	jmp    8048720 <.plt>

08048790 <__stack_chk_fail@plt>:
 8048790:	ff 25 24 c0 04 08    	jmp    *0x804c024
 8048796:	68 30 00 00 00       	push   $0x30
 804879b:	e9 80 ff ff ff       	jmp    8048720 <.plt>

080487a0 <strcpy@plt>:
 80487a0:	ff 25 28 c0 04 08    	jmp    *0x804c028
 80487a6:	68 38 00 00 00       	push   $0x38
 80487ab:	e9 70 ff ff ff       	jmp    8048720 <.plt>

080487b0 <getenv@plt>:
 80487b0:	ff 25 2c c0 04 08    	jmp    *0x804c02c
 80487b6:	68 40 00 00 00       	push   $0x40
 80487bb:	e9 60 ff ff ff       	jmp    8048720 <.plt>

080487c0 <puts@plt>:
 80487c0:	ff 25 30 c0 04 08    	jmp    *0x804c030
 80487c6:	68 48 00 00 00       	push   $0x48
 80487cb:	e9 50 ff ff ff       	jmp    8048720 <.plt>

080487d0 <__memmove_chk@plt>:
 80487d0:	ff 25 34 c0 04 08    	jmp    *0x804c034
 80487d6:	68 50 00 00 00       	push   $0x50
 80487db:	e9 40 ff ff ff       	jmp    8048720 <.plt>

080487e0 <exit@plt>:
 80487e0:	ff 25 38 c0 04 08    	jmp    *0x804c038
 80487e6:	68 58 00 00 00       	push   $0x58
 80487eb:	e9 30 ff ff ff       	jmp    8048720 <.plt>

080487f0 <__libc_start_main@plt>:
 80487f0:	ff 25 3c c0 04 08    	jmp    *0x804c03c
 80487f6:	68 60 00 00 00       	push   $0x60
 80487fb:	e9 20 ff ff ff       	jmp    8048720 <.plt>

08048800 <write@plt>:
 8048800:	ff 25 40 c0 04 08    	jmp    *0x804c040
 8048806:	68 68 00 00 00       	push   $0x68
 804880b:	e9 10 ff ff ff       	jmp    8048720 <.plt>

08048810 <__isoc99_sscanf@plt>:
 8048810:	ff 25 44 c0 04 08    	jmp    *0x804c044
 8048816:	68 70 00 00 00       	push   $0x70
 804881b:	e9 00 ff ff ff       	jmp    8048720 <.plt>

08048820 <fopen@plt>:
 8048820:	ff 25 48 c0 04 08    	jmp    *0x804c048
 8048826:	68 78 00 00 00       	push   $0x78
 804882b:	e9 f0 fe ff ff       	jmp    8048720 <.plt>

08048830 <__errno_location@plt>:
 8048830:	ff 25 4c c0 04 08    	jmp    *0x804c04c
 8048836:	68 80 00 00 00       	push   $0x80
 804883b:	e9 e0 fe ff ff       	jmp    8048720 <.plt>

08048840 <__printf_chk@plt>:
 8048840:	ff 25 50 c0 04 08    	jmp    *0x804c050
 8048846:	68 88 00 00 00       	push   $0x88
 804884b:	e9 d0 fe ff ff       	jmp    8048720 <.plt>

08048850 <socket@plt>:
 8048850:	ff 25 54 c0 04 08    	jmp    *0x804c054
 8048856:	68 90 00 00 00       	push   $0x90
 804885b:	e9 c0 fe ff ff       	jmp    8048720 <.plt>

08048860 <__fprintf_chk@plt>:
 8048860:	ff 25 58 c0 04 08    	jmp    *0x804c058
 8048866:	68 98 00 00 00       	push   $0x98
 804886b:	e9 b0 fe ff ff       	jmp    8048720 <.plt>

08048870 <gethostbyname@plt>:
 8048870:	ff 25 5c c0 04 08    	jmp    *0x804c05c
 8048876:	68 a0 00 00 00       	push   $0xa0
 804887b:	e9 a0 fe ff ff       	jmp    8048720 <.plt>

08048880 <strtol@plt>:
 8048880:	ff 25 60 c0 04 08    	jmp    *0x804c060
 8048886:	68 a8 00 00 00       	push   $0xa8
 804888b:	e9 90 fe ff ff       	jmp    8048720 <.plt>

08048890 <connect@plt>:
 8048890:	ff 25 64 c0 04 08    	jmp    *0x804c064
 8048896:	68 b0 00 00 00       	push   $0xb0
 804889b:	e9 80 fe ff ff       	jmp    8048720 <.plt>

080488a0 <close@plt>:
 80488a0:	ff 25 68 c0 04 08    	jmp    *0x804c068
 80488a6:	68 b8 00 00 00       	push   $0xb8
 80488ab:	e9 70 fe ff ff       	jmp    8048720 <.plt>

080488b0 <__ctype_b_loc@plt>:
 80488b0:	ff 25 6c c0 04 08    	jmp    *0x804c06c
 80488b6:	68 c0 00 00 00       	push   $0xc0
 80488bb:	e9 60 fe ff ff       	jmp    8048720 <.plt>

080488c0 <__sprintf_chk@plt>:
 80488c0:	ff 25 70 c0 04 08    	jmp    *0x804c070
 80488c6:	68 c8 00 00 00       	push   $0xc8
 80488cb:	e9 50 fe ff ff       	jmp    8048720 <.plt>

Disassembly of section .plt.got:

080488d0 <__gmon_start__@plt>:
 80488d0:	ff 25 fc bf 04 08    	jmp    *0x804bffc
 80488d6:	66 90                	xchg   %ax,%ax

Disassembly of section .text:

080488e0 <_start>:
 80488e0:	31 ed                	xor    %ebp,%ebp
 80488e2:	5e                   	pop    %esi
 80488e3:	89 e1                	mov    %esp,%ecx
 80488e5:	83 e4 f0             	and    $0xfffffff0,%esp
 80488e8:	50                   	push   %eax
 80488e9:	54                   	push   %esp
 80488ea:	52                   	push   %edx
 80488eb:	68 60 9f 04 08       	push   $0x8049f60
 80488f0:	68 00 9f 04 08       	push   $0x8049f00
 80488f5:	51                   	push   %ecx
 80488f6:	56                   	push   %esi
 80488f7:	68 db 89 04 08       	push   $0x80489db
 80488fc:	e8 ef fe ff ff       	call   80487f0 <__libc_start_main@plt>
 8048901:	f4                   	hlt    
 8048902:	66 90                	xchg   %ax,%ax
 8048904:	66 90                	xchg   %ax,%ax
 8048906:	66 90                	xchg   %ax,%ax
 8048908:	66 90                	xchg   %ax,%ax
 804890a:	66 90                	xchg   %ax,%ax
 804890c:	66 90                	xchg   %ax,%ax
 804890e:	66 90                	xchg   %ax,%ax

08048910 <__x86.get_pc_thunk.bx>:
 8048910:	8b 1c 24             	mov    (%esp),%ebx
 8048913:	c3                   	ret    
 8048914:	66 90                	xchg   %ax,%ax
 8048916:	66 90                	xchg   %ax,%ax
 8048918:	66 90                	xchg   %ax,%ax
 804891a:	66 90                	xchg   %ax,%ax
 804891c:	66 90                	xchg   %ax,%ax
 804891e:	66 90                	xchg   %ax,%ax

08048920 <deregister_tm_clones>:
 8048920:	b8 a3 c3 04 08       	mov    $0x804c3a3,%eax
 8048925:	2d a0 c3 04 08       	sub    $0x804c3a0,%eax
 804892a:	83 f8 06             	cmp    $0x6,%eax
 804892d:	76 1a                	jbe    8048949 <deregister_tm_clones+0x29>
 804892f:	b8 00 00 00 00       	mov    $0x0,%eax
 8048934:	85 c0                	test   %eax,%eax
 8048936:	74 11                	je     8048949 <deregister_tm_clones+0x29>
 8048938:	55                   	push   %ebp
 8048939:	89 e5                	mov    %esp,%ebp
 804893b:	83 ec 14             	sub    $0x14,%esp
 804893e:	68 a0 c3 04 08       	push   $0x804c3a0
 8048943:	ff d0                	call   *%eax
 8048945:	83 c4 10             	add    $0x10,%esp
 8048948:	c9                   	leave  
 8048949:	f3 c3                	repz ret 
 804894b:	90                   	nop
 804894c:	8d 74 26 00          	lea    0x0(%esi,%eiz,1),%esi

08048950 <register_tm_clones>:
 8048950:	b8 a0 c3 04 08       	mov    $0x804c3a0,%eax
 8048955:	2d a0 c3 04 08       	sub    $0x804c3a0,%eax
 804895a:	c1 f8 02             	sar    $0x2,%eax
 804895d:	89 c2                	mov    %eax,%edx
 804895f:	c1 ea 1f             	shr    $0x1f,%edx
 8048962:	01 d0                	add    %edx,%eax
 8048964:	d1 f8                	sar    %eax
 8048966:	74 1b                	je     8048983 <register_tm_clones+0x33>
 8048968:	ba 00 00 00 00       	mov    $0x0,%edx
 804896d:	85 d2                	test   %edx,%edx
 804896f:	74 12                	je     8048983 <register_tm_clones+0x33>
 8048971:	55                   	push   %ebp
 8048972:	89 e5                	mov    %esp,%ebp
 8048974:	83 ec 10             	sub    $0x10,%esp
 8048977:	50                   	push   %eax
 8048978:	68 a0 c3 04 08       	push   $0x804c3a0
 804897d:	ff d2                	call   *%edx
 804897f:	83 c4 10             	add    $0x10,%esp
 8048982:	c9                   	leave  
 8048983:	f3 c3                	repz ret 
 8048985:	8d 74 26 00          	lea    0x0(%esi,%eiz,1),%esi
 8048989:	8d bc 27 00 00 00 00 	lea    0x0(%edi,%eiz,1),%edi

08048990 <__do_global_dtors_aux>:
 8048990:	80 3d c8 c3 04 08 00 	cmpb   $0x0,0x804c3c8
 8048997:	75 13                	jne    80489ac <__do_global_dtors_aux+0x1c>
 8048999:	55                   	push   %ebp
 804899a:	89 e5                	mov    %esp,%ebp
 804899c:	83 ec 08             	sub    $0x8,%esp
 804899f:	e8 7c ff ff ff       	call   8048920 <deregister_tm_clones>
 80489a4:	c6 05 c8 c3 04 08 01 	movb   $0x1,0x804c3c8
 80489ab:	c9                   	leave  
 80489ac:	f3 c3                	repz ret 
 80489ae:	66 90                	xchg   %ax,%ax

080489b0 <frame_dummy>:
 80489b0:	b8 10 bf 04 08       	mov    $0x804bf10,%eax
 80489b5:	8b 10                	mov    (%eax),%edx
 80489b7:	85 d2                	test   %edx,%edx
 80489b9:	75 05                	jne    80489c0 <frame_dummy+0x10>
 80489bb:	eb 93                	jmp    8048950 <register_tm_clones>
 80489bd:	8d 76 00             	lea    0x0(%esi),%esi
 80489c0:	ba 00 00 00 00       	mov    $0x0,%edx
 80489c5:	85 d2                	test   %edx,%edx
 80489c7:	74 f2                	je     80489bb <frame_dummy+0xb>
 80489c9:	55                   	push   %ebp
 80489ca:	89 e5                	mov    %esp,%ebp
 80489cc:	83 ec 14             	sub    $0x14,%esp
 80489cf:	50                   	push   %eax
 80489d0:	ff d2                	call   *%edx
 80489d2:	83 c4 10             	add    $0x10,%esp
 80489d5:	c9                   	leave  
 80489d6:	e9 75 ff ff ff       	jmp    8048950 <register_tm_clones>

080489db <main>:
 80489db:	8d 4c 24 04          	lea    0x4(%esp),%ecx
 80489df:	83 e4 f0             	and    $0xfffffff0,%esp
 80489e2:	ff 71 fc             	pushl  -0x4(%ecx)
 80489e5:	55                   	push   %ebp
 80489e6:	89 e5                	mov    %esp,%ebp
 80489e8:	53                   	push   %ebx
 80489e9:	51                   	push   %ecx
 80489ea:	8b 01                	mov    (%ecx),%eax
 80489ec:	8b 59 04             	mov    0x4(%ecx),%ebx
 80489ef:	83 f8 01             	cmp    $0x1,%eax
 80489f2:	75 0c                	jne    8048a00 <main+0x25>
 80489f4:	a1 c0 c3 04 08       	mov    0x804c3c0,%eax
 80489f9:	a3 d0 c3 04 08       	mov    %eax,0x804c3d0
 80489fe:	eb 5b                	jmp    8048a5b <main+0x80>
 8048a00:	83 f8 02             	cmp    $0x2,%eax
 8048a03:	75 39                	jne    8048a3e <main+0x63>
 8048a05:	83 ec 08             	sub    $0x8,%esp
 8048a08:	68 88 9f 04 08       	push   $0x8049f88
 8048a0d:	ff 73 04             	pushl  0x4(%ebx)
 8048a10:	e8 0b fe ff ff       	call   8048820 <fopen@plt>
 8048a15:	a3 d0 c3 04 08       	mov    %eax,0x804c3d0
 8048a1a:	83 c4 10             	add    $0x10,%esp
 8048a1d:	85 c0                	test   %eax,%eax
 8048a1f:	75 3a                	jne    8048a5b <main+0x80>
 8048a21:	ff 73 04             	pushl  0x4(%ebx)
 8048a24:	ff 33                	pushl  (%ebx)
 8048a26:	68 8a 9f 04 08       	push   $0x8049f8a
 8048a2b:	6a 01                	push   $0x1
 8048a2d:	e8 0e fe ff ff       	call   8048840 <__printf_chk@plt>
 8048a32:	c7 04 24 08 00 00 00 	movl   $0x8,(%esp)
 8048a39:	e8 a2 fd ff ff       	call   80487e0 <exit@plt>
 8048a3e:	83 ec 04             	sub    $0x4,%esp
 8048a41:	ff 33                	pushl  (%ebx)
 8048a43:	68 a7 9f 04 08       	push   $0x8049fa7
 8048a48:	6a 01                	push   $0x1
 8048a4a:	e8 f1 fd ff ff       	call   8048840 <__printf_chk@plt>
 8048a4f:	c7 04 24 08 00 00 00 	movl   $0x8,(%esp)
 8048a56:	e8 85 fd ff ff       	call   80487e0 <exit@plt>
 8048a5b:	e8 af 06 00 00       	call   804910f <initialize_bomb>
 8048a60:	83 ec 0c             	sub    $0xc,%esp
 8048a63:	68 0c a0 04 08       	push   $0x804a00c
 8048a68:	e8 53 fd ff ff       	call   80487c0 <puts@plt>
 8048a6d:	c7 04 24 48 a0 04 08 	movl   $0x804a048,(%esp)
 8048a74:	e8 47 fd ff ff       	call   80487c0 <puts@plt>
 8048a79:	e8 83 07 00 00       	call   8049201 <read_line>
 8048a7e:	89 04 24             	mov    %eax,(%esp)
 8048a81:	e8 ad 00 00 00       	call   8048b33 <phase_1>
 8048a86:	e8 6f 08 00 00       	call   80492fa <phase_defused>
 8048a8b:	c7 04 24 74 a0 04 08 	movl   $0x804a074,(%esp)
 8048a92:	e8 29 fd ff ff       	call   80487c0 <puts@plt>
 8048a97:	e8 65 07 00 00       	call   8049201 <read_line>
 8048a9c:	89 04 24             	mov    %eax,(%esp)
 8048a9f:	e8 b0 00 00 00       	call   8048b54 <phase_2>
 8048aa4:	e8 51 08 00 00       	call   80492fa <phase_defused>
 8048aa9:	c7 04 24 c1 9f 04 08 	movl   $0x8049fc1,(%esp)
 8048ab0:	e8 0b fd ff ff       	call   80487c0 <puts@plt>
 8048ab5:	e8 47 07 00 00       	call   8049201 <read_line>
 8048aba:	89 04 24             	mov    %eax,(%esp)
 8048abd:	e8 fd 00 00 00       	call   8048bbf <phase_3>
 8048ac2:	e8 33 08 00 00       	call   80492fa <phase_defused>
 8048ac7:	c7 04 24 df 9f 04 08 	movl   $0x8049fdf,(%esp)
 8048ace:	e8 ed fc ff ff       	call   80487c0 <puts@plt>
 8048ad3:	e8 29 07 00 00       	call   8049201 <read_line>
 8048ad8:	89 04 24             	mov    %eax,(%esp)
 8048adb:	e8 9e 02 00 00       	call   8048d7e <phase_4>
 8048ae0:	e8 15 08 00 00       	call   80492fa <phase_defused>
 8048ae5:	c7 04 24 a0 a0 04 08 	movl   $0x804a0a0,(%esp)
 8048aec:	e8 cf fc ff ff       	call   80487c0 <puts@plt>
 8048af1:	e8 0b 07 00 00       	call   8049201 <read_line>
 8048af6:	89 04 24             	mov    %eax,(%esp)
 8048af9:	e8 f5 02 00 00       	call   8048df3 <phase_5>
 8048afe:	e8 f7 07 00 00       	call   80492fa <phase_defused>
 8048b03:	c7 04 24 ee 9f 04 08 	movl   $0x8049fee,(%esp)
 8048b0a:	e8 b1 fc ff ff       	call   80487c0 <puts@plt>
 8048b0f:	e8 ed 06 00 00       	call   8049201 <read_line>
 8048b14:	89 04 24             	mov    %eax,(%esp)
 8048b17:	e8 64 03 00 00       	call   8048e80 <phase_6>
 8048b1c:	e8 d9 07 00 00       	call   80492fa <phase_defused>
 8048b21:	83 c4 10             	add    $0x10,%esp
 8048b24:	b8 00 00 00 00       	mov    $0x0,%eax
 8048b29:	8d 65 f8             	lea    -0x8(%ebp),%esp
 8048b2c:	59                   	pop    %ecx
 8048b2d:	5b                   	pop    %ebx
 8048b2e:	5d                   	pop    %ebp
 8048b2f:	8d 61 fc             	lea    -0x4(%ecx),%esp
 8048b32:	c3                   	ret    

08048b33 <phase_1>:
 8048b33:	83 ec 14             	sub    $0x14,%esp
 8048b36:	68 c4 a0 04 08       	push   $0x804a0c4
 8048b3b:	ff 74 24 1c          	pushl  0x1c(%esp)
 8048b3f:	e8 66 05 00 00       	call   80490aa <strings_not_equal>
 8048b44:	83 c4 10             	add    $0x10,%esp
 8048b47:	85 c0                	test   %eax,%eax
 8048b49:	74 05                	je     8048b50 <phase_1+0x1d>
 8048b4b:	e8 51 06 00 00       	call   80491a1 <explode_bomb>
 8048b50:	83 c4 0c             	add    $0xc,%esp
 8048b53:	c3                   	ret    

08048b54 <phase_2>:
 8048b54:	56                   	push   %esi
 8048b55:	53                   	push   %ebx
 8048b56:	83 ec 2c             	sub    $0x2c,%esp
 8048b59:	65 a1 14 00 00 00    	mov    %gs:0x14,%eax
 8048b5f:	89 44 24 24          	mov    %eax,0x24(%esp)
 8048b63:	31 c0                	xor    %eax,%eax
 8048b65:	8d 44 24 0c          	lea    0xc(%esp),%eax
 8048b69:	50                   	push   %eax
 8048b6a:	ff 74 24 3c          	pushl  0x3c(%esp)
 8048b6e:	e8 53 06 00 00       	call   80491c6 <read_six_numbers>
 8048b73:	83 c4 10             	add    $0x10,%esp
 8048b76:	83 7c 24 04 00       	cmpl   $0x0,0x4(%esp)
 8048b7b:	75 07                	jne    8048b84 <phase_2+0x30>
 8048b7d:	83 7c 24 08 01       	cmpl   $0x1,0x8(%esp)
 8048b82:	74 05                	je     8048b89 <phase_2+0x35>
 8048b84:	e8 18 06 00 00       	call   80491a1 <explode_bomb>
 8048b89:	8d 5c 24 04          	lea    0x4(%esp),%ebx
 8048b8d:	8d 74 24 14          	lea    0x14(%esp),%esi
 8048b91:	8b 43 04             	mov    0x4(%ebx),%eax
 8048b94:	03 03                	add    (%ebx),%eax
 8048b96:	39 43 08             	cmp    %eax,0x8(%ebx)
 8048b99:	74 05                	je     8048ba0 <phase_2+0x4c>
 8048b9b:	e8 01 06 00 00       	call   80491a1 <explode_bomb>
 8048ba0:	83 c3 04             	add    $0x4,%ebx
 8048ba3:	39 f3                	cmp    %esi,%ebx
 8048ba5:	75 ea                	jne    8048b91 <phase_2+0x3d>
 8048ba7:	8b 44 24 1c          	mov    0x1c(%esp),%eax
 8048bab:	65 33 05 14 00 00 00 	xor    %gs:0x14,%eax
 8048bb2:	74 05                	je     8048bb9 <phase_2+0x65>
 8048bb4:	e8 d7 fb ff ff       	call   8048790 <__stack_chk_fail@plt>
 8048bb9:	83 c4 24             	add    $0x24,%esp
 8048bbc:	5b                   	pop    %ebx
 8048bbd:	5e                   	pop    %esi
 8048bbe:	c3                   	ret    

08048bbf <phase_3>:
 8048bbf:	83 ec 28             	sub    $0x28,%esp
 8048bc2:	65 a1 14 00 00 00    	mov    %gs:0x14,%eax
 8048bc8:	89 44 24 18          	mov    %eax,0x18(%esp)
 8048bcc:	31 c0                	xor    %eax,%eax
 8048bce:	8d 44 24 14          	lea    0x14(%esp),%eax
 8048bd2:	50                   	push   %eax
 8048bd3:	8d 44 24 13          	lea    0x13(%esp),%eax
 8048bd7:	50                   	push   %eax
 8048bd8:	8d 44 24 18          	lea    0x18(%esp),%eax
 8048bdc:	50                   	push   %eax
 8048bdd:	68 1a a1 04 08       	push   $0x804a11a
 8048be2:	ff 74 24 3c          	pushl  0x3c(%esp)
 8048be6:	e8 25 fc ff ff       	call   8048810 <__isoc99_sscanf@plt>
 8048beb:	83 c4 20             	add    $0x20,%esp
 8048bee:	83 f8 02             	cmp    $0x2,%eax
 8048bf1:	7f 05                	jg     8048bf8 <phase_3+0x39>
 8048bf3:	e8 a9 05 00 00       	call   80491a1 <explode_bomb>
 8048bf8:	83 7c 24 04 07       	cmpl   $0x7,0x4(%esp)
 8048bfd:	0f 87 f2 00 00 00    	ja     8048cf5 <phase_3+0x136>
 8048c03:	8b 44 24 04          	mov    0x4(%esp),%eax
 8048c07:	ff 24 85 40 a1 04 08 	jmp    *0x804a140(,%eax,4)
 8048c0e:	b8 64 00 00 00       	mov    $0x64,%eax
 8048c13:	81 7c 24 08 e5 01 00 	cmpl   $0x1e5,0x8(%esp)
 8048c1a:	00 
 8048c1b:	0f 84 de 00 00 00    	je     8048cff <phase_3+0x140>
 8048c21:	e8 7b 05 00 00       	call   80491a1 <explode_bomb>
 8048c26:	b8 64 00 00 00       	mov    $0x64,%eax
 8048c2b:	e9 cf 00 00 00       	jmp    8048cff <phase_3+0x140>
 8048c30:	b8 63 00 00 00       	mov    $0x63,%eax
 8048c35:	81 7c 24 08 c7 00 00 	cmpl   $0xc7,0x8(%esp)
 8048c3c:	00 
 8048c3d:	0f 84 bc 00 00 00    	je     8048cff <phase_3+0x140>
 8048c43:	e8 59 05 00 00       	call   80491a1 <explode_bomb>
 8048c48:	b8 63 00 00 00       	mov    $0x63,%eax
 8048c4d:	e9 ad 00 00 00       	jmp    8048cff <phase_3+0x140>
 8048c52:	b8 70 00 00 00       	mov    $0x70,%eax
 8048c57:	81 7c 24 08 b0 00 00 	cmpl   $0xb0,0x8(%esp)
 8048c5e:	00 
 8048c5f:	0f 84 9a 00 00 00    	je     8048cff <phase_3+0x140>
 8048c65:	e8 37 05 00 00       	call   80491a1 <explode_bomb>
 8048c6a:	b8 70 00 00 00       	mov    $0x70,%eax
 8048c6f:	e9 8b 00 00 00       	jmp    8048cff <phase_3+0x140>
 8048c74:	b8 67 00 00 00       	mov    $0x67,%eax
 8048c79:	81 7c 24 08 6d 01 00 	cmpl   $0x16d,0x8(%esp)
 8048c80:	00 
 8048c81:	74 7c                	je     8048cff <phase_3+0x140>
 8048c83:	e8 19 05 00 00       	call   80491a1 <explode_bomb>
 8048c88:	b8 67 00 00 00       	mov    $0x67,%eax
 8048c8d:	eb 70                	jmp    8048cff <phase_3+0x140>
 8048c8f:	b8 77 00 00 00       	mov    $0x77,%eax
 8048c94:	81 7c 24 08 35 02 00 	cmpl   $0x235,0x8(%esp)
 8048c9b:	00 
 8048c9c:	74 61                	je     8048cff <phase_3+0x140>
 8048c9e:	e8 fe 04 00 00       	call   80491a1 <explode_bomb>
 8048ca3:	b8 77 00 00 00       	mov    $0x77,%eax
 8048ca8:	eb 55                	jmp    8048cff <phase_3+0x140>
 8048caa:	b8 6c 00 00 00       	mov    $0x6c,%eax
 8048caf:	81 7c 24 08 ac 01 00 	cmpl   $0x1ac,0x8(%esp)
 8048cb6:	00 
 8048cb7:	74 46                	je     8048cff <phase_3+0x140>
 8048cb9:	e8 e3 04 00 00       	call   80491a1 <explode_bomb>
 8048cbe:	b8 6c 00 00 00       	mov    $0x6c,%eax
 8048cc3:	eb 3a                	jmp    8048cff <phase_3+0x140>
 8048cc5:	b8 68 00 00 00       	mov    $0x68,%eax
 8048cca:	83 7c 24 08 53       	cmpl   $0x53,0x8(%esp)
 8048ccf:	74 2e                	je     8048cff <phase_3+0x140>
 8048cd1:	e8 cb 04 00 00       	call   80491a1 <explode_bomb>
 8048cd6:	b8 68 00 00 00       	mov    $0x68,%eax
 8048cdb:	eb 22                	jmp    8048cff <phase_3+0x140>
 8048cdd:	b8 68 00 00 00       	mov    $0x68,%eax
 8048ce2:	83 7c 24 08 5b       	cmpl   $0x5b,0x8(%esp)
 8048ce7:	74 16                	je     8048cff <phase_3+0x140>
 8048ce9:	e8 b3 04 00 00       	call   80491a1 <explode_bomb>
 8048cee:	b8 68 00 00 00       	mov    $0x68,%eax
 8048cf3:	eb 0a                	jmp    8048cff <phase_3+0x140>
 8048cf5:	e8 a7 04 00 00       	call   80491a1 <explode_bomb>
 8048cfa:	b8 6b 00 00 00       	mov    $0x6b,%eax
 8048cff:	3a 44 24 03          	cmp    0x3(%esp),%al
 8048d03:	74 05                	je     8048d0a <phase_3+0x14b>
 8048d05:	e8 97 04 00 00       	call   80491a1 <explode_bomb>
 8048d0a:	8b 44 24 0c          	mov    0xc(%esp),%eax
 8048d0e:	65 33 05 14 00 00 00 	xor    %gs:0x14,%eax
 8048d15:	74 05                	je     8048d1c <phase_3+0x15d>
 8048d17:	e8 74 fa ff ff       	call   8048790 <__stack_chk_fail@plt>
 8048d1c:	83 c4 1c             	add    $0x1c,%esp
 8048d1f:	c3                   	ret    

08048d20 <func4>:
 8048d20:	56                   	push   %esi
 8048d21:	53                   	push   %ebx
 8048d22:	83 ec 04             	sub    $0x4,%esp
 8048d25:	8b 4c 24 10          	mov    0x10(%esp),%ecx
 8048d29:	8b 5c 24 14          	mov    0x14(%esp),%ebx
 8048d2d:	8b 74 24 18          	mov    0x18(%esp),%esi
 8048d31:	89 f0                	mov    %esi,%eax
 8048d33:	29 d8                	sub    %ebx,%eax
 8048d35:	89 c2                	mov    %eax,%edx
 8048d37:	c1 ea 1f             	shr    $0x1f,%edx
 8048d3a:	01 d0                	add    %edx,%eax
 8048d3c:	d1 f8                	sar    %eax
 8048d3e:	8d 14 18             	lea    (%eax,%ebx,1),%edx
 8048d41:	39 ca                	cmp    %ecx,%edx
 8048d43:	7e 15                	jle    8048d5a <func4+0x3a>
 8048d45:	83 ec 04             	sub    $0x4,%esp
 8048d48:	83 ea 01             	sub    $0x1,%edx
 8048d4b:	52                   	push   %edx
 8048d4c:	53                   	push   %ebx
 8048d4d:	51                   	push   %ecx
 8048d4e:	e8 cd ff ff ff       	call   8048d20 <func4>
 8048d53:	83 c4 10             	add    $0x10,%esp
 8048d56:	01 c0                	add    %eax,%eax
 8048d58:	eb 1e                	jmp    8048d78 <func4+0x58>
 8048d5a:	b8 00 00 00 00       	mov    $0x0,%eax
 8048d5f:	39 ca                	cmp    %ecx,%edx
 8048d61:	7d 15                	jge    8048d78 <func4+0x58>
 8048d63:	83 ec 04             	sub    $0x4,%esp
 8048d66:	56                   	push   %esi
 8048d67:	83 c2 01             	add    $0x1,%edx
 8048d6a:	52                   	push   %edx
 8048d6b:	51                   	push   %ecx
 8048d6c:	e8 af ff ff ff       	call   8048d20 <func4>
 8048d71:	83 c4 10             	add    $0x10,%esp
 8048d74:	8d 44 00 01          	lea    0x1(%eax,%eax,1),%eax
 8048d78:	83 c4 04             	add    $0x4,%esp
 8048d7b:	5b                   	pop    %ebx
 8048d7c:	5e                   	pop    %esi
 8048d7d:	c3                   	ret    

08048d7e <phase_4>:
 8048d7e:	83 ec 1c             	sub    $0x1c,%esp
 8048d81:	65 a1 14 00 00 00    	mov    %gs:0x14,%eax
 8048d87:	89 44 24 0c          	mov    %eax,0xc(%esp)
 8048d8b:	31 c0                	xor    %eax,%eax
 8048d8d:	8d 44 24 08          	lea    0x8(%esp),%eax
 8048d91:	50                   	push   %eax
 8048d92:	8d 44 24 08          	lea    0x8(%esp),%eax
 8048d96:	50                   	push   %eax
 8048d97:	68 af a2 04 08       	push   $0x804a2af
 8048d9c:	ff 74 24 2c          	pushl  0x2c(%esp)
 8048da0:	e8 6b fa ff ff       	call   8048810 <__isoc99_sscanf@plt>
 8048da5:	83 c4 10             	add    $0x10,%esp
 8048da8:	83 f8 02             	cmp    $0x2,%eax
 8048dab:	75 07                	jne    8048db4 <phase_4+0x36>
 8048dad:	83 7c 24 04 0e       	cmpl   $0xe,0x4(%esp)
 8048db2:	76 05                	jbe    8048db9 <phase_4+0x3b>
 8048db4:	e8 e8 03 00 00       	call   80491a1 <explode_bomb>
 8048db9:	83 ec 04             	sub    $0x4,%esp
 8048dbc:	6a 0e                	push   $0xe
 8048dbe:	6a 00                	push   $0x0
 8048dc0:	ff 74 24 10          	pushl  0x10(%esp)
 8048dc4:	e8 57 ff ff ff       	call   8048d20 <func4>
 8048dc9:	83 c4 10             	add    $0x10,%esp
 8048dcc:	83 f8 02             	cmp    $0x2,%eax
 8048dcf:	75 07                	jne    8048dd8 <phase_4+0x5a>
 8048dd1:	83 7c 24 08 02       	cmpl   $0x2,0x8(%esp)
 8048dd6:	74 05                	je     8048ddd <phase_4+0x5f>
 8048dd8:	e8 c4 03 00 00       	call   80491a1 <explode_bomb>
 8048ddd:	8b 44 24 0c          	mov    0xc(%esp),%eax
 8048de1:	65 33 05 14 00 00 00 	xor    %gs:0x14,%eax
 8048de8:	74 05                	je     8048def <phase_4+0x71>
 8048dea:	e8 a1 f9 ff ff       	call   8048790 <__stack_chk_fail@plt>
 8048def:	83 c4 1c             	add    $0x1c,%esp
 8048df2:	c3                   	ret    

08048df3 <phase_5>:
 8048df3:	83 ec 1c             	sub    $0x1c,%esp
 8048df6:	65 a1 14 00 00 00    	mov    %gs:0x14,%eax
 8048dfc:	89 44 24 0c          	mov    %eax,0xc(%esp)
 8048e00:	31 c0                	xor    %eax,%eax
 8048e02:	8d 44 24 08          	lea    0x8(%esp),%eax
 8048e06:	50                   	push   %eax
 8048e07:	8d 44 24 08          	lea    0x8(%esp),%eax
 8048e0b:	50                   	push   %eax
 8048e0c:	68 af a2 04 08       	push   $0x804a2af
 8048e11:	ff 74 24 2c          	pushl  0x2c(%esp)
 8048e15:	e8 f6 f9 ff ff       	call   8048810 <__isoc99_sscanf@plt>
 8048e1a:	83 c4 10             	add    $0x10,%esp
 8048e1d:	83 f8 01             	cmp    $0x1,%eax
 8048e20:	7f 05                	jg     8048e27 <phase_5+0x34>
 8048e22:	e8 7a 03 00 00       	call   80491a1 <explode_bomb>
 8048e27:	8b 44 24 04          	mov    0x4(%esp),%eax
 8048e2b:	83 e0 0f             	and    $0xf,%eax
 8048e2e:	89 44 24 04          	mov    %eax,0x4(%esp)
 8048e32:	83 f8 0f             	cmp    $0xf,%eax
 8048e35:	74 2e                	je     8048e65 <phase_5+0x72>
 8048e37:	b9 00 00 00 00       	mov    $0x0,%ecx
 8048e3c:	ba 00 00 00 00       	mov    $0x0,%edx
 8048e41:	83 c2 01             	add    $0x1,%edx
 8048e44:	8b 04 85 60 a1 04 08 	mov    0x804a160(,%eax,4),%eax
 8048e4b:	01 c1                	add    %eax,%ecx
 8048e4d:	83 f8 0f             	cmp    $0xf,%eax
 8048e50:	75 ef                	jne    8048e41 <phase_5+0x4e>
 8048e52:	c7 44 24 04 0f 00 00 	movl   $0xf,0x4(%esp)
 8048e59:	00 
 8048e5a:	83 fa 0f             	cmp    $0xf,%edx
 8048e5d:	75 06                	jne    8048e65 <phase_5+0x72>
 8048e5f:	3b 4c 24 08          	cmp    0x8(%esp),%ecx
 8048e63:	74 05                	je     8048e6a <phase_5+0x77>
 8048e65:	e8 37 03 00 00       	call   80491a1 <explode_bomb>
 8048e6a:	8b 44 24 0c          	mov    0xc(%esp),%eax
 8048e6e:	65 33 05 14 00 00 00 	xor    %gs:0x14,%eax
 8048e75:	74 05                	je     8048e7c <phase_5+0x89>
 8048e77:	e8 14 f9 ff ff       	call   8048790 <__stack_chk_fail@plt>
 8048e7c:	83 c4 1c             	add    $0x1c,%esp
 8048e7f:	c3                   	ret    

08048e80 <phase_6>:
 8048e80:	56                   	push   %esi
 8048e81:	53                   	push   %ebx
 8048e82:	83 ec 4c             	sub    $0x4c,%esp
 8048e85:	65 a1 14 00 00 00    	mov    %gs:0x14,%eax
 8048e8b:	89 44 24 44          	mov    %eax,0x44(%esp)
 8048e8f:	31 c0                	xor    %eax,%eax
 8048e91:	8d 44 24 14          	lea    0x14(%esp),%eax
 8048e95:	50                   	push   %eax
 8048e96:	ff 74 24 5c          	pushl  0x5c(%esp)
 8048e9a:	e8 27 03 00 00       	call   80491c6 <read_six_numbers>
 8048e9f:	83 c4 10             	add    $0x10,%esp
 8048ea2:	be 00 00 00 00       	mov    $0x0,%esi
 8048ea7:	8b 44 b4 0c          	mov    0xc(%esp,%esi,4),%eax
 8048eab:	83 e8 01             	sub    $0x1,%eax
 8048eae:	83 f8 05             	cmp    $0x5,%eax
 8048eb1:	76 05                	jbe    8048eb8 <phase_6+0x38>
 8048eb3:	e8 e9 02 00 00       	call   80491a1 <explode_bomb>
 8048eb8:	83 c6 01             	add    $0x1,%esi
 8048ebb:	83 fe 06             	cmp    $0x6,%esi
 8048ebe:	74 33                	je     8048ef3 <phase_6+0x73>
 8048ec0:	89 f3                	mov    %esi,%ebx
 8048ec2:	8b 44 9c 0c          	mov    0xc(%esp,%ebx,4),%eax
 8048ec6:	39 44 b4 08          	cmp    %eax,0x8(%esp,%esi,4)
 8048eca:	75 05                	jne    8048ed1 <phase_6+0x51>
 8048ecc:	e8 d0 02 00 00       	call   80491a1 <explode_bomb>
 8048ed1:	83 c3 01             	add    $0x1,%ebx
 8048ed4:	83 fb 05             	cmp    $0x5,%ebx
 8048ed7:	7e e9                	jle    8048ec2 <phase_6+0x42>
 8048ed9:	eb cc                	jmp    8048ea7 <phase_6+0x27>
 8048edb:	8b 52 08             	mov    0x8(%edx),%edx
 8048ede:	83 c0 01             	add    $0x1,%eax
 8048ee1:	39 c8                	cmp    %ecx,%eax
 8048ee3:	75 f6                	jne    8048edb <phase_6+0x5b>
 8048ee5:	89 54 b4 24          	mov    %edx,0x24(%esp,%esi,4)
 8048ee9:	83 c3 01             	add    $0x1,%ebx
 8048eec:	83 fb 06             	cmp    $0x6,%ebx
 8048eef:	75 07                	jne    8048ef8 <phase_6+0x78>
 8048ef1:	eb 1c                	jmp    8048f0f <phase_6+0x8f>
 8048ef3:	bb 00 00 00 00       	mov    $0x0,%ebx
 8048ef8:	89 de                	mov    %ebx,%esi
 8048efa:	8b 4c 9c 0c          	mov    0xc(%esp,%ebx,4),%ecx
 8048efe:	b8 01 00 00 00       	mov    $0x1,%eax
 8048f03:	ba 3c c1 04 08       	mov    $0x804c13c,%edx
 8048f08:	83 f9 01             	cmp    $0x1,%ecx
 8048f0b:	7f ce                	jg     8048edb <phase_6+0x5b>
 8048f0d:	eb d6                	jmp    8048ee5 <phase_6+0x65>
 8048f0f:	8b 5c 24 24          	mov    0x24(%esp),%ebx
 8048f13:	8d 44 24 24          	lea    0x24(%esp),%eax
 8048f17:	8d 74 24 38          	lea    0x38(%esp),%esi
 8048f1b:	89 d9                	mov    %ebx,%ecx
 8048f1d:	8b 50 04             	mov    0x4(%eax),%edx
 8048f20:	89 51 08             	mov    %edx,0x8(%ecx)
 8048f23:	83 c0 04             	add    $0x4,%eax
 8048f26:	89 d1                	mov    %edx,%ecx
 8048f28:	39 f0                	cmp    %esi,%eax
 8048f2a:	75 f1                	jne    8048f1d <phase_6+0x9d>
 8048f2c:	c7 42 08 00 00 00 00 	movl   $0x0,0x8(%edx)
 8048f33:	be 05 00 00 00       	mov    $0x5,%esi
 8048f38:	8b 43 08             	mov    0x8(%ebx),%eax
 8048f3b:	8b 00                	mov    (%eax),%eax
 8048f3d:	39 03                	cmp    %eax,(%ebx)
 8048f3f:	7e 05                	jle    8048f46 <phase_6+0xc6>
 8048f41:	e8 5b 02 00 00       	call   80491a1 <explode_bomb>
 8048f46:	8b 5b 08             	mov    0x8(%ebx),%ebx
 8048f49:	83 ee 01             	sub    $0x1,%esi
 8048f4c:	75 ea                	jne    8048f38 <phase_6+0xb8>
 8048f4e:	8b 44 24 3c          	mov    0x3c(%esp),%eax
 8048f52:	65 33 05 14 00 00 00 	xor    %gs:0x14,%eax
 8048f59:	74 05                	je     8048f60 <phase_6+0xe0>
 8048f5b:	e8 30 f8 ff ff       	call   8048790 <__stack_chk_fail@plt>
 8048f60:	83 c4 44             	add    $0x44,%esp
 8048f63:	5b                   	pop    %ebx
 8048f64:	5e                   	pop    %esi
 8048f65:	c3                   	ret    

08048f66 <fun7>:
 8048f66:	53                   	push   %ebx
 8048f67:	83 ec 08             	sub    $0x8,%esp
 8048f6a:	8b 54 24 10          	mov    0x10(%esp),%edx
 8048f6e:	8b 4c 24 14          	mov    0x14(%esp),%ecx
 8048f72:	85 d2                	test   %edx,%edx
 8048f74:	74 37                	je     8048fad <fun7+0x47>
 8048f76:	8b 1a                	mov    (%edx),%ebx
 8048f78:	39 cb                	cmp    %ecx,%ebx
 8048f7a:	7e 13                	jle    8048f8f <fun7+0x29>
 8048f7c:	83 ec 08             	sub    $0x8,%esp
 8048f7f:	51                   	push   %ecx
 8048f80:	ff 72 04             	pushl  0x4(%edx)
 8048f83:	e8 de ff ff ff       	call   8048f66 <fun7>
 8048f88:	83 c4 10             	add    $0x10,%esp
 8048f8b:	01 c0                	add    %eax,%eax
 8048f8d:	eb 23                	jmp    8048fb2 <fun7+0x4c>
 8048f8f:	b8 00 00 00 00       	mov    $0x0,%eax
 8048f94:	39 cb                	cmp    %ecx,%ebx
 8048f96:	74 1a                	je     8048fb2 <fun7+0x4c>
 8048f98:	83 ec 08             	sub    $0x8,%esp
 8048f9b:	51                   	push   %ecx
 8048f9c:	ff 72 08             	pushl  0x8(%edx)
 8048f9f:	e8 c2 ff ff ff       	call   8048f66 <fun7>
 8048fa4:	83 c4 10             	add    $0x10,%esp
 8048fa7:	8d 44 00 01          	lea    0x1(%eax,%eax,1),%eax
 8048fab:	eb 05                	jmp    8048fb2 <fun7+0x4c>
 8048fad:	b8 ff ff ff ff       	mov    $0xffffffff,%eax
 8048fb2:	83 c4 08             	add    $0x8,%esp
 8048fb5:	5b                   	pop    %ebx
 8048fb6:	c3                   	ret    

08048fb7 <secret_phase>:
 8048fb7:	53                   	push   %ebx
 8048fb8:	83 ec 08             	sub    $0x8,%esp
 8048fbb:	e8 41 02 00 00       	call   8049201 <read_line>
 8048fc0:	83 ec 04             	sub    $0x4,%esp
 8048fc3:	6a 0a                	push   $0xa
 8048fc5:	6a 00                	push   $0x0
 8048fc7:	50                   	push   %eax
 8048fc8:	e8 b3 f8 ff ff       	call   8048880 <strtol@plt>
 8048fcd:	89 c3                	mov    %eax,%ebx
 8048fcf:	8d 40 ff             	lea    -0x1(%eax),%eax
 8048fd2:	83 c4 10             	add    $0x10,%esp
 8048fd5:	3d e8 03 00 00       	cmp    $0x3e8,%eax
 8048fda:	76 05                	jbe    8048fe1 <secret_phase+0x2a>
 8048fdc:	e8 c0 01 00 00       	call   80491a1 <explode_bomb>
 8048fe1:	83 ec 08             	sub    $0x8,%esp
 8048fe4:	53                   	push   %ebx
 8048fe5:	68 88 c0 04 08       	push   $0x804c088
 8048fea:	e8 77 ff ff ff       	call   8048f66 <fun7>
 8048fef:	83 c4 10             	add    $0x10,%esp
 8048ff2:	85 c0                	test   %eax,%eax
 8048ff4:	74 05                	je     8048ffb <secret_phase+0x44>
 8048ff6:	e8 a6 01 00 00       	call   80491a1 <explode_bomb>
 8048ffb:	83 ec 0c             	sub    $0xc,%esp
 8048ffe:	68 f4 a0 04 08       	push   $0x804a0f4
 8049003:	e8 b8 f7 ff ff       	call   80487c0 <puts@plt>
 8049008:	e8 ed 02 00 00       	call   80492fa <phase_defused>
 804900d:	83 c4 18             	add    $0x18,%esp
 8049010:	5b                   	pop    %ebx
 8049011:	c3                   	ret    

08049012 <sig_handler>:
 8049012:	83 ec 18             	sub    $0x18,%esp
 8049015:	68 a0 a1 04 08       	push   $0x804a1a0
 804901a:	e8 a1 f7 ff ff       	call   80487c0 <puts@plt>
 804901f:	c7 04 24 03 00 00 00 	movl   $0x3,(%esp)
 8049026:	e8 45 f7 ff ff       	call   8048770 <sleep@plt>
 804902b:	83 c4 08             	add    $0x8,%esp
 804902e:	68 62 a2 04 08       	push   $0x804a262
 8049033:	6a 01                	push   $0x1
 8049035:	e8 06 f8 ff ff       	call   8048840 <__printf_chk@plt>
 804903a:	83 c4 04             	add    $0x4,%esp
 804903d:	ff 35 c4 c3 04 08    	pushl  0x804c3c4
 8049043:	e8 f8 f6 ff ff       	call   8048740 <fflush@plt>
 8049048:	c7 04 24 01 00 00 00 	movl   $0x1,(%esp)
 804904f:	e8 1c f7 ff ff       	call   8048770 <sleep@plt>
 8049054:	c7 04 24 6a a2 04 08 	movl   $0x804a26a,(%esp)
 804905b:	e8 60 f7 ff ff       	call   80487c0 <puts@plt>
 8049060:	c7 04 24 10 00 00 00 	movl   $0x10,(%esp)
 8049067:	e8 74 f7 ff ff       	call   80487e0 <exit@plt>

0804906c <invalid_phase>:
 804906c:	83 ec 10             	sub    $0x10,%esp
 804906f:	ff 74 24 14          	pushl  0x14(%esp)
 8049073:	68 72 a2 04 08       	push   $0x804a272
 8049078:	6a 01                	push   $0x1
 804907a:	e8 c1 f7 ff ff       	call   8048840 <__printf_chk@plt>
 804907f:	c7 04 24 08 00 00 00 	movl   $0x8,(%esp)
 8049086:	e8 55 f7 ff ff       	call   80487e0 <exit@plt>

0804908b <string_length>:
 804908b:	8b 54 24 04          	mov    0x4(%esp),%edx
 804908f:	80 3a 00             	cmpb   $0x0,(%edx)
 8049092:	74 10                	je     80490a4 <string_length+0x19>
 8049094:	b8 00 00 00 00       	mov    $0x0,%eax
 8049099:	83 c0 01             	add    $0x1,%eax
 804909c:	80 3c 02 00          	cmpb   $0x0,(%edx,%eax,1)
 80490a0:	75 f7                	jne    8049099 <string_length+0xe>
 80490a2:	f3 c3                	repz ret 
 80490a4:	b8 00 00 00 00       	mov    $0x0,%eax
 80490a9:	c3                   	ret    

080490aa <strings_not_equal>:
 80490aa:	57                   	push   %edi
 80490ab:	56                   	push   %esi
 80490ac:	53                   	push   %ebx
 80490ad:	8b 5c 24 10          	mov    0x10(%esp),%ebx
 80490b1:	8b 74 24 14          	mov    0x14(%esp),%esi
 80490b5:	53                   	push   %ebx
 80490b6:	e8 d0 ff ff ff       	call   804908b <string_length>
 80490bb:	89 c7                	mov    %eax,%edi
 80490bd:	89 34 24             	mov    %esi,(%esp)
 80490c0:	e8 c6 ff ff ff       	call   804908b <string_length>
 80490c5:	83 c4 04             	add    $0x4,%esp
 80490c8:	ba 01 00 00 00       	mov    $0x1,%edx
 80490cd:	39 c7                	cmp    %eax,%edi
 80490cf:	75 38                	jne    8049109 <strings_not_equal+0x5f>
 80490d1:	0f b6 03             	movzbl (%ebx),%eax
 80490d4:	84 c0                	test   %al,%al
 80490d6:	74 1e                	je     80490f6 <strings_not_equal+0x4c>
 80490d8:	3a 06                	cmp    (%esi),%al
 80490da:	74 06                	je     80490e2 <strings_not_equal+0x38>
 80490dc:	eb 1f                	jmp    80490fd <strings_not_equal+0x53>
 80490de:	3a 06                	cmp    (%esi),%al
 80490e0:	75 22                	jne    8049104 <strings_not_equal+0x5a>
 80490e2:	83 c3 01             	add    $0x1,%ebx
 80490e5:	83 c6 01             	add    $0x1,%esi
 80490e8:	0f b6 03             	movzbl (%ebx),%eax
 80490eb:	84 c0                	test   %al,%al
 80490ed:	75 ef                	jne    80490de <strings_not_equal+0x34>
 80490ef:	ba 00 00 00 00       	mov    $0x0,%edx
 80490f4:	eb 13                	jmp    8049109 <strings_not_equal+0x5f>
 80490f6:	ba 00 00 00 00       	mov    $0x0,%edx
 80490fb:	eb 0c                	jmp    8049109 <strings_not_equal+0x5f>
 80490fd:	ba 01 00 00 00       	mov    $0x1,%edx
 8049102:	eb 05                	jmp    8049109 <strings_not_equal+0x5f>
 8049104:	ba 01 00 00 00       	mov    $0x1,%edx
 8049109:	89 d0                	mov    %edx,%eax
 804910b:	5b                   	pop    %ebx
 804910c:	5e                   	pop    %esi
 804910d:	5f                   	pop    %edi
 804910e:	c3                   	ret    

0804910f <initialize_bomb>:
 804910f:	83 ec 14             	sub    $0x14,%esp
 8049112:	68 12 90 04 08       	push   $0x8049012
 8049117:	6a 02                	push   $0x2
 8049119:	e8 42 f6 ff ff       	call   8048760 <signal@plt>
 804911e:	83 c4 1c             	add    $0x1c,%esp
 8049121:	c3                   	ret    

08049122 <initialize_bomb_solve>:
 8049122:	f3 c3                	repz ret 

08049124 <blank_line>:
 8049124:	56                   	push   %esi
 8049125:	53                   	push   %ebx
 8049126:	83 ec 04             	sub    $0x4,%esp
 8049129:	8b 74 24 10          	mov    0x10(%esp),%esi
 804912d:	eb 14                	jmp    8049143 <blank_line+0x1f>
 804912f:	e8 7c f7 ff ff       	call   80488b0 <__ctype_b_loc@plt>
 8049134:	83 c6 01             	add    $0x1,%esi
 8049137:	0f be db             	movsbl %bl,%ebx
 804913a:	8b 00                	mov    (%eax),%eax
 804913c:	f6 44 58 01 20       	testb  $0x20,0x1(%eax,%ebx,2)
 8049141:	74 0e                	je     8049151 <blank_line+0x2d>
 8049143:	0f b6 1e             	movzbl (%esi),%ebx
 8049146:	84 db                	test   %bl,%bl
 8049148:	75 e5                	jne    804912f <blank_line+0xb>
 804914a:	b8 01 00 00 00       	mov    $0x1,%eax
 804914f:	eb 05                	jmp    8049156 <blank_line+0x32>
 8049151:	b8 00 00 00 00       	mov    $0x0,%eax
 8049156:	83 c4 04             	add    $0x4,%esp
 8049159:	5b                   	pop    %ebx
 804915a:	5e                   	pop    %esi
 804915b:	c3                   	ret    

0804915c <skip>:
 804915c:	53                   	push   %ebx
 804915d:	83 ec 08             	sub    $0x8,%esp
 8049160:	83 ec 04             	sub    $0x4,%esp
 8049163:	ff 35 d0 c3 04 08    	pushl  0x804c3d0
 8049169:	6a 50                	push   $0x50
 804916b:	a1 cc c3 04 08       	mov    0x804c3cc,%eax
 8049170:	8d 04 80             	lea    (%eax,%eax,4),%eax
 8049173:	c1 e0 04             	shl    $0x4,%eax
 8049176:	05 e0 c3 04 08       	add    $0x804c3e0,%eax
 804917b:	50                   	push   %eax
 804917c:	e8 cf f5 ff ff       	call   8048750 <fgets@plt>
 8049181:	89 c3                	mov    %eax,%ebx
 8049183:	83 c4 10             	add    $0x10,%esp
 8049186:	85 c0                	test   %eax,%eax
 8049188:	74 10                	je     804919a <skip+0x3e>
 804918a:	83 ec 0c             	sub    $0xc,%esp
 804918d:	50                   	push   %eax
 804918e:	e8 91 ff ff ff       	call   8049124 <blank_line>
 8049193:	83 c4 10             	add    $0x10,%esp
 8049196:	85 c0                	test   %eax,%eax
 8049198:	75 c6                	jne    8049160 <skip+0x4>
 804919a:	89 d8                	mov    %ebx,%eax
 804919c:	83 c4 08             	add    $0x8,%esp
 804919f:	5b                   	pop    %ebx
 80491a0:	c3                   	ret    

080491a1 <explode_bomb>:
 80491a1:	83 ec 18             	sub    $0x18,%esp
 80491a4:	68 83 a2 04 08       	push   $0x804a283
 80491a9:	e8 12 f6 ff ff       	call   80487c0 <puts@plt>
 80491ae:	c7 04 24 8c a2 04 08 	movl   $0x804a28c,(%esp)
 80491b5:	e8 06 f6 ff ff       	call   80487c0 <puts@plt>
 80491ba:	c7 04 24 08 00 00 00 	movl   $0x8,(%esp)
 80491c1:	e8 1a f6 ff ff       	call   80487e0 <exit@plt>

080491c6 <read_six_numbers>:
 80491c6:	83 ec 0c             	sub    $0xc,%esp
 80491c9:	8b 44 24 14          	mov    0x14(%esp),%eax
 80491cd:	8d 50 14             	lea    0x14(%eax),%edx
 80491d0:	52                   	push   %edx
 80491d1:	8d 50 10             	lea    0x10(%eax),%edx
 80491d4:	52                   	push   %edx
 80491d5:	8d 50 0c             	lea    0xc(%eax),%edx
 80491d8:	52                   	push   %edx
 80491d9:	8d 50 08             	lea    0x8(%eax),%edx
 80491dc:	52                   	push   %edx
 80491dd:	8d 50 04             	lea    0x4(%eax),%edx
 80491e0:	52                   	push   %edx
 80491e1:	50                   	push   %eax
 80491e2:	68 a3 a2 04 08       	push   $0x804a2a3
 80491e7:	ff 74 24 2c          	pushl  0x2c(%esp)
 80491eb:	e8 20 f6 ff ff       	call   8048810 <__isoc99_sscanf@plt>
 80491f0:	83 c4 20             	add    $0x20,%esp
 80491f3:	83 f8 05             	cmp    $0x5,%eax
 80491f6:	7f 05                	jg     80491fd <read_six_numbers+0x37>
 80491f8:	e8 a4 ff ff ff       	call   80491a1 <explode_bomb>
 80491fd:	83 c4 0c             	add    $0xc,%esp
 8049200:	c3                   	ret    

08049201 <read_line>:
 8049201:	57                   	push   %edi
 8049202:	56                   	push   %esi
 8049203:	53                   	push   %ebx
 8049204:	e8 53 ff ff ff       	call   804915c <skip>
 8049209:	85 c0                	test   %eax,%eax
 804920b:	75 70                	jne    804927d <read_line+0x7c>
 804920d:	a1 c0 c3 04 08       	mov    0x804c3c0,%eax
 8049212:	39 05 d0 c3 04 08    	cmp    %eax,0x804c3d0
 8049218:	75 19                	jne    8049233 <read_line+0x32>
 804921a:	83 ec 0c             	sub    $0xc,%esp
 804921d:	68 b5 a2 04 08       	push   $0x804a2b5
 8049222:	e8 99 f5 ff ff       	call   80487c0 <puts@plt>
 8049227:	c7 04 24 08 00 00 00 	movl   $0x8,(%esp)
 804922e:	e8 ad f5 ff ff       	call   80487e0 <exit@plt>
 8049233:	83 ec 0c             	sub    $0xc,%esp
 8049236:	68 d3 a2 04 08       	push   $0x804a2d3
 804923b:	e8 70 f5 ff ff       	call   80487b0 <getenv@plt>
 8049240:	83 c4 10             	add    $0x10,%esp
 8049243:	85 c0                	test   %eax,%eax
 8049245:	74 0a                	je     8049251 <read_line+0x50>
 8049247:	83 ec 0c             	sub    $0xc,%esp
 804924a:	6a 00                	push   $0x0
 804924c:	e8 8f f5 ff ff       	call   80487e0 <exit@plt>
 8049251:	a1 c0 c3 04 08       	mov    0x804c3c0,%eax
 8049256:	a3 d0 c3 04 08       	mov    %eax,0x804c3d0
 804925b:	e8 fc fe ff ff       	call   804915c <skip>
 8049260:	85 c0                	test   %eax,%eax
 8049262:	75 19                	jne    804927d <read_line+0x7c>
 8049264:	83 ec 0c             	sub    $0xc,%esp
 8049267:	68 b5 a2 04 08       	push   $0x804a2b5
 804926c:	e8 4f f5 ff ff       	call   80487c0 <puts@plt>
 8049271:	c7 04 24 00 00 00 00 	movl   $0x0,(%esp)
 8049278:	e8 63 f5 ff ff       	call   80487e0 <exit@plt>
 804927d:	8b 15 cc c3 04 08    	mov    0x804c3cc,%edx
 8049283:	8d 1c 92             	lea    (%edx,%edx,4),%ebx
 8049286:	c1 e3 04             	shl    $0x4,%ebx
 8049289:	81 c3 e0 c3 04 08    	add    $0x804c3e0,%ebx
 804928f:	b8 00 00 00 00       	mov    $0x0,%eax
 8049294:	b9 ff ff ff ff       	mov    $0xffffffff,%ecx
 8049299:	89 df                	mov    %ebx,%edi
 804929b:	f2 ae                	repnz scas %es:(%edi),%al
 804929d:	f7 d1                	not    %ecx
 804929f:	83 e9 01             	sub    $0x1,%ecx
 80492a2:	83 f9 4e             	cmp    $0x4e,%ecx
 80492a5:	7e 36                	jle    80492dd <read_line+0xdc>
 80492a7:	83 ec 0c             	sub    $0xc,%esp
 80492aa:	68 de a2 04 08       	push   $0x804a2de
 80492af:	e8 0c f5 ff ff       	call   80487c0 <puts@plt>
 80492b4:	a1 cc c3 04 08       	mov    0x804c3cc,%eax
 80492b9:	8d 50 01             	lea    0x1(%eax),%edx
 80492bc:	89 15 cc c3 04 08    	mov    %edx,0x804c3cc
 80492c2:	6b c0 50             	imul   $0x50,%eax,%eax
 80492c5:	05 e0 c3 04 08       	add    $0x804c3e0,%eax
 80492ca:	be f9 a2 04 08       	mov    $0x804a2f9,%esi
 80492cf:	b9 04 00 00 00       	mov    $0x4,%ecx
 80492d4:	89 c7                	mov    %eax,%edi
 80492d6:	f3 a5                	rep movsl %ds:(%esi),%es:(%edi)
 80492d8:	e8 c4 fe ff ff       	call   80491a1 <explode_bomb>
 80492dd:	8d 04 92             	lea    (%edx,%edx,4),%eax
 80492e0:	c1 e0 04             	shl    $0x4,%eax
 80492e3:	c6 84 01 df c3 04 08 	movb   $0x0,0x804c3df(%ecx,%eax,1)
 80492ea:	00 
 80492eb:	83 c2 01             	add    $0x1,%edx
 80492ee:	89 15 cc c3 04 08    	mov    %edx,0x804c3cc
 80492f4:	89 d8                	mov    %ebx,%eax
 80492f6:	5b                   	pop    %ebx
 80492f7:	5e                   	pop    %esi
 80492f8:	5f                   	pop    %edi
 80492f9:	c3                   	ret    

080492fa <phase_defused>:
 80492fa:	83 ec 6c             	sub    $0x6c,%esp
 80492fd:	65 a1 14 00 00 00    	mov    %gs:0x14,%eax
 8049303:	89 44 24 5c          	mov    %eax,0x5c(%esp)
 8049307:	31 c0                	xor    %eax,%eax
 8049309:	83 3d cc c3 04 08 06 	cmpl   $0x6,0x804c3cc
 8049310:	75 73                	jne    8049385 <phase_defused+0x8b>
 8049312:	83 ec 0c             	sub    $0xc,%esp
 8049315:	8d 44 24 18          	lea    0x18(%esp),%eax
 8049319:	50                   	push   %eax
 804931a:	8d 44 24 18          	lea    0x18(%esp),%eax
 804931e:	50                   	push   %eax
 804931f:	8d 44 24 18          	lea    0x18(%esp),%eax
 8049323:	50                   	push   %eax
 8049324:	68 09 a3 04 08       	push   $0x804a309
 8049329:	68 d0 c4 04 08       	push   $0x804c4d0
 804932e:	e8 dd f4 ff ff       	call   8048810 <__isoc99_sscanf@plt>
 8049333:	83 c4 20             	add    $0x20,%esp
 8049336:	83 f8 03             	cmp    $0x3,%eax
 8049339:	75 3a                	jne    8049375 <phase_defused+0x7b>
 804933b:	83 ec 08             	sub    $0x8,%esp
 804933e:	68 12 a3 04 08       	push   $0x804a312
 8049343:	8d 44 24 18          	lea    0x18(%esp),%eax
 8049347:	50                   	push   %eax
 8049348:	e8 5d fd ff ff       	call   80490aa <strings_not_equal>
 804934d:	83 c4 10             	add    $0x10,%esp
 8049350:	85 c0                	test   %eax,%eax
 8049352:	75 21                	jne    8049375 <phase_defused+0x7b>
 8049354:	83 ec 0c             	sub    $0xc,%esp
 8049357:	68 d8 a1 04 08       	push   $0x804a1d8
 804935c:	e8 5f f4 ff ff       	call   80487c0 <puts@plt>
 8049361:	c7 04 24 00 a2 04 08 	movl   $0x804a200,(%esp)
 8049368:	e8 53 f4 ff ff       	call   80487c0 <puts@plt>
 804936d:	e8 45 fc ff ff       	call   8048fb7 <secret_phase>
 8049372:	83 c4 10             	add    $0x10,%esp
 8049375:	83 ec 0c             	sub    $0xc,%esp
 8049378:	68 38 a2 04 08       	push   $0x804a238
 804937d:	e8 3e f4 ff ff       	call   80487c0 <puts@plt>
 8049382:	83 c4 10             	add    $0x10,%esp
 8049385:	8b 44 24 5c          	mov    0x5c(%esp),%eax
 8049389:	65 33 05 14 00 00 00 	xor    %gs:0x14,%eax
 8049390:	74 05                	je     8049397 <phase_defused+0x9d>
 8049392:	e8 f9 f3 ff ff       	call   8048790 <__stack_chk_fail@plt>
 8049397:	83 c4 6c             	add    $0x6c,%esp
 804939a:	c3                   	ret    

0804939b <sigalrm_handler>:
 804939b:	83 ec 0c             	sub    $0xc,%esp
 804939e:	6a 00                	push   $0x0
 80493a0:	68 80 a3 04 08       	push   $0x804a380
 80493a5:	6a 01                	push   $0x1
 80493a7:	ff 35 a0 c3 04 08    	pushl  0x804c3a0
 80493ad:	e8 ae f4 ff ff       	call   8048860 <__fprintf_chk@plt>
 80493b2:	c7 04 24 01 00 00 00 	movl   $0x1,(%esp)
 80493b9:	e8 22 f4 ff ff       	call   80487e0 <exit@plt>

080493be <rio_readlineb>:
 80493be:	55                   	push   %ebp
 80493bf:	57                   	push   %edi
 80493c0:	56                   	push   %esi
 80493c1:	53                   	push   %ebx
 80493c2:	83 ec 2c             	sub    $0x2c,%esp
 80493c5:	89 d7                	mov    %edx,%edi
 80493c7:	89 4c 24 0c          	mov    %ecx,0xc(%esp)
 80493cb:	65 8b 15 14 00 00 00 	mov    %gs:0x14,%edx
 80493d2:	89 54 24 1c          	mov    %edx,0x1c(%esp)
 80493d6:	31 d2                	xor    %edx,%edx
 80493d8:	83 f9 01             	cmp    $0x1,%ecx
 80493db:	76 79                	jbe    8049456 <rio_readlineb+0x98>
 80493dd:	89 c3                	mov    %eax,%ebx
 80493df:	89 4c 24 08          	mov    %ecx,0x8(%esp)
 80493e3:	bd 01 00 00 00       	mov    $0x1,%ebp
 80493e8:	8d 73 0c             	lea    0xc(%ebx),%esi
 80493eb:	eb 2d                	jmp    804941a <rio_readlineb+0x5c>
 80493ed:	83 ec 04             	sub    $0x4,%esp
 80493f0:	68 00 20 00 00       	push   $0x2000
 80493f5:	56                   	push   %esi
 80493f6:	ff 33                	pushl  (%ebx)
 80493f8:	e8 33 f3 ff ff       	call   8048730 <read@plt>
 80493fd:	89 43 04             	mov    %eax,0x4(%ebx)
 8049400:	83 c4 10             	add    $0x10,%esp
 8049403:	85 c0                	test   %eax,%eax
 8049405:	79 0c                	jns    8049413 <rio_readlineb+0x55>
 8049407:	e8 24 f4 ff ff       	call   8048830 <__errno_location@plt>
 804940c:	83 38 04             	cmpl   $0x4,(%eax)
 804940f:	74 09                	je     804941a <rio_readlineb+0x5c>
 8049411:	eb 62                	jmp    8049475 <rio_readlineb+0xb7>
 8049413:	85 c0                	test   %eax,%eax
 8049415:	74 63                	je     804947a <rio_readlineb+0xbc>
 8049417:	89 73 08             	mov    %esi,0x8(%ebx)
 804941a:	8b 43 04             	mov    0x4(%ebx),%eax
 804941d:	85 c0                	test   %eax,%eax
 804941f:	7e cc                	jle    80493ed <rio_readlineb+0x2f>
 8049421:	8b 4b 08             	mov    0x8(%ebx),%ecx
 8049424:	0f b6 11             	movzbl (%ecx),%edx
 8049427:	88 54 24 1b          	mov    %dl,0x1b(%esp)
 804942b:	83 c1 01             	add    $0x1,%ecx
 804942e:	89 4b 08             	mov    %ecx,0x8(%ebx)
 8049431:	83 e8 01             	sub    $0x1,%eax
 8049434:	89 43 04             	mov    %eax,0x4(%ebx)
 8049437:	83 c7 01             	add    $0x1,%edi
 804943a:	88 57 ff             	mov    %dl,-0x1(%edi)
 804943d:	80 fa 0a             	cmp    $0xa,%dl
 8049440:	75 09                	jne    804944b <rio_readlineb+0x8d>
 8049442:	eb 1d                	jmp    8049461 <rio_readlineb+0xa3>
 8049444:	83 fd 01             	cmp    $0x1,%ebp
 8049447:	75 18                	jne    8049461 <rio_readlineb+0xa3>
 8049449:	eb 1b                	jmp    8049466 <rio_readlineb+0xa8>
 804944b:	83 c5 01             	add    $0x1,%ebp
 804944e:	3b 6c 24 08          	cmp    0x8(%esp),%ebp
 8049452:	74 09                	je     804945d <rio_readlineb+0x9f>
 8049454:	eb c4                	jmp    804941a <rio_readlineb+0x5c>
 8049456:	bd 01 00 00 00       	mov    $0x1,%ebp
 804945b:	eb 04                	jmp    8049461 <rio_readlineb+0xa3>
 804945d:	8b 6c 24 0c          	mov    0xc(%esp),%ebp
 8049461:	c6 07 00             	movb   $0x0,(%edi)
 8049464:	89 e8                	mov    %ebp,%eax
 8049466:	8b 54 24 1c          	mov    0x1c(%esp),%edx
 804946a:	65 33 15 14 00 00 00 	xor    %gs:0x14,%edx
 8049471:	74 17                	je     804948a <rio_readlineb+0xcc>
 8049473:	eb 10                	jmp    8049485 <rio_readlineb+0xc7>
 8049475:	b8 ff ff ff ff       	mov    $0xffffffff,%eax
 804947a:	85 c0                	test   %eax,%eax
 804947c:	74 c6                	je     8049444 <rio_readlineb+0x86>
 804947e:	b8 ff ff ff ff       	mov    $0xffffffff,%eax
 8049483:	eb e1                	jmp    8049466 <rio_readlineb+0xa8>
 8049485:	e8 06 f3 ff ff       	call   8048790 <__stack_chk_fail@plt>
 804948a:	83 c4 2c             	add    $0x2c,%esp
 804948d:	5b                   	pop    %ebx
 804948e:	5e                   	pop    %esi
 804948f:	5f                   	pop    %edi
 8049490:	5d                   	pop    %ebp
 8049491:	c3                   	ret    

08049492 <submitr>:
 8049492:	55                   	push   %ebp
 8049493:	57                   	push   %edi
 8049494:	56                   	push   %esi
 8049495:	53                   	push   %ebx
 8049496:	81 ec 60 a0 00 00    	sub    $0xa060,%esp
 804949c:	8b b4 24 74 a0 00 00 	mov    0xa074(%esp),%esi
 80494a3:	8b 84 24 7c a0 00 00 	mov    0xa07c(%esp),%eax
 80494aa:	89 44 24 0c          	mov    %eax,0xc(%esp)
 80494ae:	8b 84 24 80 a0 00 00 	mov    0xa080(%esp),%eax
 80494b5:	89 44 24 10          	mov    %eax,0x10(%esp)
 80494b9:	8b 84 24 84 a0 00 00 	mov    0xa084(%esp),%eax
 80494c0:	89 44 24 1c          	mov    %eax,0x1c(%esp)
 80494c4:	8b 84 24 88 a0 00 00 	mov    0xa088(%esp),%eax
 80494cb:	89 44 24 14          	mov    %eax,0x14(%esp)
 80494cf:	8b 9c 24 8c a0 00 00 	mov    0xa08c(%esp),%ebx
 80494d6:	8b 84 24 90 a0 00 00 	mov    0xa090(%esp),%eax
 80494dd:	89 44 24 18          	mov    %eax,0x18(%esp)
 80494e1:	65 a1 14 00 00 00    	mov    %gs:0x14,%eax
 80494e7:	89 84 24 50 a0 00 00 	mov    %eax,0xa050(%esp)
 80494ee:	31 c0                	xor    %eax,%eax
 80494f0:	c7 44 24 30 00 00 00 	movl   $0x0,0x30(%esp)
 80494f7:	00 
 80494f8:	6a 00                	push   $0x0
 80494fa:	6a 01                	push   $0x1
 80494fc:	6a 02                	push   $0x2
 80494fe:	e8 4d f3 ff ff       	call   8048850 <socket@plt>
 8049503:	89 44 24 14          	mov    %eax,0x14(%esp)
 8049507:	83 c4 10             	add    $0x10,%esp
 804950a:	85 c0                	test   %eax,%eax
 804950c:	79 52                	jns    8049560 <submitr+0xce>
 804950e:	8b 44 24 14          	mov    0x14(%esp),%eax
 8049512:	c7 00 45 72 72 6f    	movl   $0x6f727245,(%eax)
 8049518:	c7 40 04 72 3a 20 43 	movl   $0x43203a72,0x4(%eax)
 804951f:	c7 40 08 6c 69 65 6e 	movl   $0x6e65696c,0x8(%eax)
 8049526:	c7 40 0c 74 20 75 6e 	movl   $0x6e752074,0xc(%eax)
 804952d:	c7 40 10 61 62 6c 65 	movl   $0x656c6261,0x10(%eax)
 8049534:	c7 40 14 20 74 6f 20 	movl   $0x206f7420,0x14(%eax)
 804953b:	c7 40 18 63 72 65 61 	movl   $0x61657263,0x18(%eax)
 8049542:	c7 40 1c 74 65 20 73 	movl   $0x73206574,0x1c(%eax)
 8049549:	c7 40 20 6f 63 6b 65 	movl   $0x656b636f,0x20(%eax)
 8049550:	66 c7 40 24 74 00    	movw   $0x74,0x24(%eax)
 8049556:	b8 ff ff ff ff       	mov    $0xffffffff,%eax
 804955b:	e9 3f 06 00 00       	jmp    8049b9f <submitr+0x70d>
 8049560:	83 ec 0c             	sub    $0xc,%esp
 8049563:	56                   	push   %esi
 8049564:	e8 07 f3 ff ff       	call   8048870 <gethostbyname@plt>
 8049569:	83 c4 10             	add    $0x10,%esp
 804956c:	85 c0                	test   %eax,%eax
 804956e:	75 73                	jne    80495e3 <submitr+0x151>
 8049570:	8b 44 24 14          	mov    0x14(%esp),%eax
 8049574:	c7 00 45 72 72 6f    	movl   $0x6f727245,(%eax)
 804957a:	c7 40 04 72 3a 20 44 	movl   $0x44203a72,0x4(%eax)
 8049581:	c7 40 08 4e 53 20 69 	movl   $0x6920534e,0x8(%eax)
 8049588:	c7 40 0c 73 20 75 6e 	movl   $0x6e752073,0xc(%eax)
 804958f:	c7 40 10 61 62 6c 65 	movl   $0x656c6261,0x10(%eax)
 8049596:	c7 40 14 20 74 6f 20 	movl   $0x206f7420,0x14(%eax)
 804959d:	c7 40 18 72 65 73 6f 	movl   $0x6f736572,0x18(%eax)
 80495a4:	c7 40 1c 6c 76 65 20 	movl   $0x2065766c,0x1c(%eax)
 80495ab:	c7 40 20 73 65 72 76 	movl   $0x76726573,0x20(%eax)
 80495b2:	c7 40 24 65 72 20 61 	movl   $0x61207265,0x24(%eax)
 80495b9:	c7 40 28 64 64 72 65 	movl   $0x65726464,0x28(%eax)
 80495c0:	66 c7 40 2c 73 73    	movw   $0x7373,0x2c(%eax)
 80495c6:	c6 40 2e 00          	movb   $0x0,0x2e(%eax)
 80495ca:	83 ec 0c             	sub    $0xc,%esp
 80495cd:	ff 74 24 10          	pushl  0x10(%esp)
 80495d1:	e8 ca f2 ff ff       	call   80488a0 <close@plt>
 80495d6:	83 c4 10             	add    $0x10,%esp
 80495d9:	b8 ff ff ff ff       	mov    $0xffffffff,%eax
 80495de:	e9 bc 05 00 00       	jmp    8049b9f <submitr+0x70d>
 80495e3:	8d 74 24 30          	lea    0x30(%esp),%esi
 80495e7:	c7 44 24 30 00 00 00 	movl   $0x0,0x30(%esp)
 80495ee:	00 
 80495ef:	c7 44 24 34 00 00 00 	movl   $0x0,0x34(%esp)
 80495f6:	00 
 80495f7:	c7 44 24 38 00 00 00 	movl   $0x0,0x38(%esp)
 80495fe:	00 
 80495ff:	c7 44 24 3c 00 00 00 	movl   $0x0,0x3c(%esp)
 8049606:	00 
 8049607:	66 c7 44 24 30 02 00 	movw   $0x2,0x30(%esp)
 804960e:	6a 0c                	push   $0xc
 8049610:	ff 70 0c             	pushl  0xc(%eax)
 8049613:	8b 40 10             	mov    0x10(%eax),%eax
 8049616:	ff 30                	pushl  (%eax)
 8049618:	8d 44 24 40          	lea    0x40(%esp),%eax
 804961c:	50                   	push   %eax
 804961d:	e8 ae f1 ff ff       	call   80487d0 <__memmove_chk@plt>
 8049622:	0f b7 84 24 84 a0 00 	movzwl 0xa084(%esp),%eax
 8049629:	00 
 804962a:	66 c1 c8 08          	ror    $0x8,%ax
 804962e:	66 89 44 24 42       	mov    %ax,0x42(%esp)
 8049633:	83 c4 0c             	add    $0xc,%esp
 8049636:	6a 10                	push   $0x10
 8049638:	56                   	push   %esi
 8049639:	ff 74 24 10          	pushl  0x10(%esp)
 804963d:	e8 4e f2 ff ff       	call   8048890 <connect@plt>
 8049642:	83 c4 10             	add    $0x10,%esp
 8049645:	85 c0                	test   %eax,%eax
 8049647:	79 65                	jns    80496ae <submitr+0x21c>
 8049649:	8b 44 24 14          	mov    0x14(%esp),%eax
 804964d:	c7 00 45 72 72 6f    	movl   $0x6f727245,(%eax)
 8049653:	c7 40 04 72 3a 20 55 	movl   $0x55203a72,0x4(%eax)
 804965a:	c7 40 08 6e 61 62 6c 	movl   $0x6c62616e,0x8(%eax)
 8049661:	c7 40 0c 65 20 74 6f 	movl   $0x6f742065,0xc(%eax)
 8049668:	c7 40 10 20 63 6f 6e 	movl   $0x6e6f6320,0x10(%eax)
 804966f:	c7 40 14 6e 65 63 74 	movl   $0x7463656e,0x14(%eax)
 8049676:	c7 40 18 20 74 6f 20 	movl   $0x206f7420,0x18(%eax)
 804967d:	c7 40 1c 74 68 65 20 	movl   $0x20656874,0x1c(%eax)
 8049684:	c7 40 20 73 65 72 76 	movl   $0x76726573,0x20(%eax)
 804968b:	66 c7 40 24 65 72    	movw   $0x7265,0x24(%eax)
 8049691:	c6 40 26 00          	movb   $0x0,0x26(%eax)
 8049695:	83 ec 0c             	sub    $0xc,%esp
 8049698:	ff 74 24 10          	pushl  0x10(%esp)
 804969c:	e8 ff f1 ff ff       	call   80488a0 <close@plt>
 80496a1:	83 c4 10             	add    $0x10,%esp
 80496a4:	b8 ff ff ff ff       	mov    $0xffffffff,%eax
 80496a9:	e9 f1 04 00 00       	jmp    8049b9f <submitr+0x70d>
 80496ae:	be ff ff ff ff       	mov    $0xffffffff,%esi
 80496b3:	b8 00 00 00 00       	mov    $0x0,%eax
 80496b8:	89 f1                	mov    %esi,%ecx
 80496ba:	89 df                	mov    %ebx,%edi
 80496bc:	f2 ae                	repnz scas %es:(%edi),%al
 80496be:	f7 d1                	not    %ecx
 80496c0:	89 cd                	mov    %ecx,%ebp
 80496c2:	89 f1                	mov    %esi,%ecx
 80496c4:	8b 7c 24 08          	mov    0x8(%esp),%edi
 80496c8:	f2 ae                	repnz scas %es:(%edi),%al
 80496ca:	89 4c 24 1c          	mov    %ecx,0x1c(%esp)
 80496ce:	89 f1                	mov    %esi,%ecx
 80496d0:	8b 7c 24 0c          	mov    0xc(%esp),%edi
 80496d4:	f2 ae                	repnz scas %es:(%edi),%al
 80496d6:	89 ca                	mov    %ecx,%edx
 80496d8:	f7 d2                	not    %edx
 80496da:	89 f1                	mov    %esi,%ecx
 80496dc:	8b 7c 24 10          	mov    0x10(%esp),%edi
 80496e0:	f2 ae                	repnz scas %es:(%edi),%al
 80496e2:	2b 54 24 1c          	sub    0x1c(%esp),%edx
 80496e6:	29 ca                	sub    %ecx,%edx
 80496e8:	8d 44 6d fd          	lea    -0x3(%ebp,%ebp,2),%eax
 80496ec:	8d 44 02 7b          	lea    0x7b(%edx,%eax,1),%eax
 80496f0:	3d 00 20 00 00       	cmp    $0x2000,%eax
 80496f5:	76 7e                	jbe    8049775 <submitr+0x2e3>
 80496f7:	8b 44 24 14          	mov    0x14(%esp),%eax
 80496fb:	c7 00 45 72 72 6f    	movl   $0x6f727245,(%eax)
 8049701:	c7 40 04 72 3a 20 52 	movl   $0x52203a72,0x4(%eax)
 8049708:	c7 40 08 65 73 75 6c 	movl   $0x6c757365,0x8(%eax)
 804970f:	c7 40 0c 74 20 73 74 	movl   $0x74732074,0xc(%eax)
 8049716:	c7 40 10 72 69 6e 67 	movl   $0x676e6972,0x10(%eax)
 804971d:	c7 40 14 20 74 6f 6f 	movl   $0x6f6f7420,0x14(%eax)
 8049724:	c7 40 18 20 6c 61 72 	movl   $0x72616c20,0x18(%eax)
 804972b:	c7 40 1c 67 65 2e 20 	movl   $0x202e6567,0x1c(%eax)
 8049732:	c7 40 20 49 6e 63 72 	movl   $0x72636e49,0x20(%eax)
 8049739:	c7 40 24 65 61 73 65 	movl   $0x65736165,0x24(%eax)
 8049740:	c7 40 28 20 53 55 42 	movl   $0x42555320,0x28(%eax)
 8049747:	c7 40 2c 4d 49 54 52 	movl   $0x5254494d,0x2c(%eax)
 804974e:	c7 40 30 5f 4d 41 58 	movl   $0x58414d5f,0x30(%eax)
 8049755:	c7 40 34 42 55 46 00 	movl   $0x465542,0x34(%eax)
 804975c:	83 ec 0c             	sub    $0xc,%esp
 804975f:	ff 74 24 10          	pushl  0x10(%esp)
 8049763:	e8 38 f1 ff ff       	call   80488a0 <close@plt>
 8049768:	83 c4 10             	add    $0x10,%esp
 804976b:	b8 ff ff ff ff       	mov    $0xffffffff,%eax
 8049770:	e9 2a 04 00 00       	jmp    8049b9f <submitr+0x70d>
 8049775:	8d 94 24 4c 40 00 00 	lea    0x404c(%esp),%edx
 804977c:	b9 00 08 00 00       	mov    $0x800,%ecx
 8049781:	b8 00 00 00 00       	mov    $0x0,%eax
 8049786:	89 d7                	mov    %edx,%edi
 8049788:	f3 ab                	rep stos %eax,%es:(%edi)
 804978a:	b9 ff ff ff ff       	mov    $0xffffffff,%ecx
 804978f:	89 df                	mov    %ebx,%edi
 8049791:	f2 ae                	repnz scas %es:(%edi),%al
 8049793:	f7 d1                	not    %ecx
 8049795:	89 ce                	mov    %ecx,%esi
 8049797:	83 ee 01             	sub    $0x1,%esi
 804979a:	0f 84 5c 04 00 00    	je     8049bfc <submitr+0x76a>
 80497a0:	89 d5                	mov    %edx,%ebp
 80497a2:	bf d9 ff 00 00       	mov    $0xffd9,%edi
 80497a7:	0f b6 13             	movzbl (%ebx),%edx
 80497aa:	8d 4a d6             	lea    -0x2a(%edx),%ecx
 80497ad:	b8 01 00 00 00       	mov    $0x1,%eax
 80497b2:	80 f9 0f             	cmp    $0xf,%cl
 80497b5:	77 0a                	ja     80497c1 <submitr+0x32f>
 80497b7:	89 f8                	mov    %edi,%eax
 80497b9:	d3 e8                	shr    %cl,%eax
 80497bb:	83 f0 01             	xor    $0x1,%eax
 80497be:	83 e0 01             	and    $0x1,%eax
 80497c1:	80 fa 5f             	cmp    $0x5f,%dl
 80497c4:	0f 94 c1             	sete   %cl
 80497c7:	38 c1                	cmp    %al,%cl
 80497c9:	73 0c                	jae    80497d7 <submitr+0x345>
 80497cb:	89 d0                	mov    %edx,%eax
 80497cd:	83 e0 df             	and    $0xffffffdf,%eax
 80497d0:	83 e8 41             	sub    $0x41,%eax
 80497d3:	3c 19                	cmp    $0x19,%al
 80497d5:	77 08                	ja     80497df <submitr+0x34d>
 80497d7:	88 55 00             	mov    %dl,0x0(%ebp)
 80497da:	8d 6d 01             	lea    0x1(%ebp),%ebp
 80497dd:	eb 62                	jmp    8049841 <submitr+0x3af>
 80497df:	80 fa 20             	cmp    $0x20,%dl
 80497e2:	75 09                	jne    80497ed <submitr+0x35b>
 80497e4:	c6 45 00 2b          	movb   $0x2b,0x0(%ebp)
 80497e8:	8d 6d 01             	lea    0x1(%ebp),%ebp
 80497eb:	eb 54                	jmp    8049841 <submitr+0x3af>
 80497ed:	8d 42 e0             	lea    -0x20(%edx),%eax
 80497f0:	3c 5f                	cmp    $0x5f,%al
 80497f2:	76 09                	jbe    80497fd <submitr+0x36b>
 80497f4:	80 fa 09             	cmp    $0x9,%dl
 80497f7:	0f 85 bb 03 00 00    	jne    8049bb8 <submitr+0x726>
 80497fd:	83 ec 0c             	sub    $0xc,%esp
 8049800:	0f b6 d2             	movzbl %dl,%edx
 8049803:	52                   	push   %edx
 8049804:	68 98 a4 04 08       	push   $0x804a498
 8049809:	6a 08                	push   $0x8
 804980b:	6a 01                	push   $0x1
 804980d:	8d 84 24 68 80 00 00 	lea    0x8068(%esp),%eax
 8049814:	50                   	push   %eax
 8049815:	e8 a6 f0 ff ff       	call   80488c0 <__sprintf_chk@plt>
 804981a:	0f b6 84 24 6c 80 00 	movzbl 0x806c(%esp),%eax
 8049821:	00 
 8049822:	88 45 00             	mov    %al,0x0(%ebp)
 8049825:	0f b6 84 24 6d 80 00 	movzbl 0x806d(%esp),%eax
 804982c:	00 
 804982d:	88 45 01             	mov    %al,0x1(%ebp)
 8049830:	0f b6 84 24 6e 80 00 	movzbl 0x806e(%esp),%eax
 8049837:	00 
 8049838:	88 45 02             	mov    %al,0x2(%ebp)
 804983b:	83 c4 20             	add    $0x20,%esp
 804983e:	8d 6d 03             	lea    0x3(%ebp),%ebp
 8049841:	83 c3 01             	add    $0x1,%ebx
 8049844:	83 ee 01             	sub    $0x1,%esi
 8049847:	0f 85 5a ff ff ff    	jne    80497a7 <submitr+0x315>
 804984d:	e9 aa 03 00 00       	jmp    8049bfc <submitr+0x76a>
 8049852:	83 ec 04             	sub    $0x4,%esp
 8049855:	53                   	push   %ebx
 8049856:	56                   	push   %esi
 8049857:	55                   	push   %ebp
 8049858:	e8 a3 ef ff ff       	call   8048800 <write@plt>
 804985d:	83 c4 10             	add    $0x10,%esp
 8049860:	85 c0                	test   %eax,%eax
 8049862:	7f 0f                	jg     8049873 <submitr+0x3e1>
 8049864:	e8 c7 ef ff ff       	call   8048830 <__errno_location@plt>
 8049869:	83 38 04             	cmpl   $0x4,(%eax)
 804986c:	75 0f                	jne    804987d <submitr+0x3eb>
 804986e:	b8 00 00 00 00       	mov    $0x0,%eax
 8049873:	01 c6                	add    %eax,%esi
 8049875:	29 c3                	sub    %eax,%ebx
 8049877:	75 d9                	jne    8049852 <submitr+0x3c0>
 8049879:	85 ff                	test   %edi,%edi
 804987b:	79 69                	jns    80498e6 <submitr+0x454>
 804987d:	8b 44 24 14          	mov    0x14(%esp),%eax
 8049881:	c7 00 45 72 72 6f    	movl   $0x6f727245,(%eax)
 8049887:	c7 40 04 72 3a 20 43 	movl   $0x43203a72,0x4(%eax)
 804988e:	c7 40 08 6c 69 65 6e 	movl   $0x6e65696c,0x8(%eax)
 8049895:	c7 40 0c 74 20 75 6e 	movl   $0x6e752074,0xc(%eax)
 804989c:	c7 40 10 61 62 6c 65 	movl   $0x656c6261,0x10(%eax)
 80498a3:	c7 40 14 20 74 6f 20 	movl   $0x206f7420,0x14(%eax)
 80498aa:	c7 40 18 77 72 69 74 	movl   $0x74697277,0x18(%eax)
 80498b1:	c7 40 1c 65 20 74 6f 	movl   $0x6f742065,0x1c(%eax)
 80498b8:	c7 40 20 20 74 68 65 	movl   $0x65687420,0x20(%eax)
 80498bf:	c7 40 24 20 73 65 72 	movl   $0x72657320,0x24(%eax)
 80498c6:	c7 40 28 76 65 72 00 	movl   $0x726576,0x28(%eax)
 80498cd:	83 ec 0c             	sub    $0xc,%esp
 80498d0:	ff 74 24 10          	pushl  0x10(%esp)
 80498d4:	e8 c7 ef ff ff       	call   80488a0 <close@plt>
 80498d9:	83 c4 10             	add    $0x10,%esp
 80498dc:	b8 ff ff ff ff       	mov    $0xffffffff,%eax
 80498e1:	e9 b9 02 00 00       	jmp    8049b9f <submitr+0x70d>
 80498e6:	8b 44 24 04          	mov    0x4(%esp),%eax
 80498ea:	89 44 24 40          	mov    %eax,0x40(%esp)
 80498ee:	c7 44 24 44 00 00 00 	movl   $0x0,0x44(%esp)
 80498f5:	00 
 80498f6:	8d 44 24 4c          	lea    0x4c(%esp),%eax
 80498fa:	89 44 24 48          	mov    %eax,0x48(%esp)
 80498fe:	b9 00 20 00 00       	mov    $0x2000,%ecx
 8049903:	8d 94 24 4c 20 00 00 	lea    0x204c(%esp),%edx
 804990a:	8d 44 24 40          	lea    0x40(%esp),%eax
 804990e:	e8 ab fa ff ff       	call   80493be <rio_readlineb>
 8049913:	85 c0                	test   %eax,%eax
 8049915:	7f 7d                	jg     8049994 <submitr+0x502>
 8049917:	8b 44 24 14          	mov    0x14(%esp),%eax
 804991b:	c7 00 45 72 72 6f    	movl   $0x6f727245,(%eax)
 8049921:	c7 40 04 72 3a 20 43 	movl   $0x43203a72,0x4(%eax)
 8049928:	c7 40 08 6c 69 65 6e 	movl   $0x6e65696c,0x8(%eax)
 804992f:	c7 40 0c 74 20 75 6e 	movl   $0x6e752074,0xc(%eax)
 8049936:	c7 40 10 61 62 6c 65 	movl   $0x656c6261,0x10(%eax)
 804993d:	c7 40 14 20 74 6f 20 	movl   $0x206f7420,0x14(%eax)
 8049944:	c7 40 18 72 65 61 64 	movl   $0x64616572,0x18(%eax)
 804994b:	c7 40 1c 20 66 69 72 	movl   $0x72696620,0x1c(%eax)
 8049952:	c7 40 20 73 74 20 68 	movl   $0x68207473,0x20(%eax)
 8049959:	c7 40 24 65 61 64 65 	movl   $0x65646165,0x24(%eax)
 8049960:	c7 40 28 72 20 66 72 	movl   $0x72662072,0x28(%eax)
 8049967:	c7 40 2c 6f 6d 20 73 	movl   $0x73206d6f,0x2c(%eax)
 804996e:	c7 40 30 65 72 76 65 	movl   $0x65767265,0x30(%eax)
 8049975:	66 c7 40 34 72 00    	movw   $0x72,0x34(%eax)
 804997b:	83 ec 0c             	sub    $0xc,%esp
 804997e:	ff 74 24 10          	pushl  0x10(%esp)
 8049982:	e8 19 ef ff ff       	call   80488a0 <close@plt>
 8049987:	83 c4 10             	add    $0x10,%esp
 804998a:	b8 ff ff ff ff       	mov    $0xffffffff,%eax
 804998f:	e9 0b 02 00 00       	jmp    8049b9f <submitr+0x70d>
 8049994:	83 ec 0c             	sub    $0xc,%esp
 8049997:	8d 84 24 58 80 00 00 	lea    0x8058(%esp),%eax
 804999e:	50                   	push   %eax
 804999f:	8d 44 24 3c          	lea    0x3c(%esp),%eax
 80499a3:	50                   	push   %eax
 80499a4:	8d 84 24 60 60 00 00 	lea    0x6060(%esp),%eax
 80499ab:	50                   	push   %eax
 80499ac:	68 9f a4 04 08       	push   $0x804a49f
 80499b1:	8d 84 24 68 20 00 00 	lea    0x2068(%esp),%eax
 80499b8:	50                   	push   %eax
 80499b9:	e8 52 ee ff ff       	call   8048810 <__isoc99_sscanf@plt>
 80499be:	8b 44 24 4c          	mov    0x4c(%esp),%eax
 80499c2:	83 c4 20             	add    $0x20,%esp
 80499c5:	3d c8 00 00 00       	cmp    $0xc8,%eax
 80499ca:	0f 84 c4 00 00 00    	je     8049a94 <submitr+0x602>
 80499d0:	83 ec 08             	sub    $0x8,%esp
 80499d3:	8d 94 24 54 80 00 00 	lea    0x8054(%esp),%edx
 80499da:	52                   	push   %edx
 80499db:	50                   	push   %eax
 80499dc:	68 a4 a3 04 08       	push   $0x804a3a4
 80499e1:	6a ff                	push   $0xffffffff
 80499e3:	6a 01                	push   $0x1
 80499e5:	ff 74 24 30          	pushl  0x30(%esp)
 80499e9:	e8 d2 ee ff ff       	call   80488c0 <__sprintf_chk@plt>
 80499ee:	83 c4 14             	add    $0x14,%esp
 80499f1:	ff 74 24 10          	pushl  0x10(%esp)
 80499f5:	e8 a6 ee ff ff       	call   80488a0 <close@plt>
 80499fa:	83 c4 10             	add    $0x10,%esp
 80499fd:	b8 ff ff ff ff       	mov    $0xffffffff,%eax
 8049a02:	e9 98 01 00 00       	jmp    8049b9f <submitr+0x70d>
 8049a07:	b9 00 20 00 00       	mov    $0x2000,%ecx
 8049a0c:	8d 94 24 4c 20 00 00 	lea    0x204c(%esp),%edx
 8049a13:	8d 44 24 40          	lea    0x40(%esp),%eax
 8049a17:	e8 a2 f9 ff ff       	call   80493be <rio_readlineb>
 8049a1c:	85 c0                	test   %eax,%eax
 8049a1e:	7f 74                	jg     8049a94 <submitr+0x602>
 8049a20:	8b 44 24 14          	mov    0x14(%esp),%eax
 8049a24:	c7 00 45 72 72 6f    	movl   $0x6f727245,(%eax)
 8049a2a:	c7 40 04 72 3a 20 43 	movl   $0x43203a72,0x4(%eax)
 8049a31:	c7 40 08 6c 69 65 6e 	movl   $0x6e65696c,0x8(%eax)
 8049a38:	c7 40 0c 74 20 75 6e 	movl   $0x6e752074,0xc(%eax)
 8049a3f:	c7 40 10 61 62 6c 65 	movl   $0x656c6261,0x10(%eax)
 8049a46:	c7 40 14 20 74 6f 20 	movl   $0x206f7420,0x14(%eax)
 8049a4d:	c7 40 18 72 65 61 64 	movl   $0x64616572,0x18(%eax)
 8049a54:	c7 40 1c 20 68 65 61 	movl   $0x61656820,0x1c(%eax)
 8049a5b:	c7 40 20 64 65 72 73 	movl   $0x73726564,0x20(%eax)
 8049a62:	c7 40 24 20 66 72 6f 	movl   $0x6f726620,0x24(%eax)
 8049a69:	c7 40 28 6d 20 73 65 	movl   $0x6573206d,0x28(%eax)
 8049a70:	c7 40 2c 72 76 65 72 	movl   $0x72657672,0x2c(%eax)
 8049a77:	c6 40 30 00          	movb   $0x0,0x30(%eax)
 8049a7b:	83 ec 0c             	sub    $0xc,%esp
 8049a7e:	ff 74 24 10          	pushl  0x10(%esp)
 8049a82:	e8 19 ee ff ff       	call   80488a0 <close@plt>
 8049a87:	83 c4 10             	add    $0x10,%esp
 8049a8a:	b8 ff ff ff ff       	mov    $0xffffffff,%eax
 8049a8f:	e9 0b 01 00 00       	jmp    8049b9f <submitr+0x70d>
 8049a94:	80 bc 24 4c 20 00 00 	cmpb   $0xd,0x204c(%esp)
 8049a9b:	0d 
 8049a9c:	0f 85 65 ff ff ff    	jne    8049a07 <submitr+0x575>
 8049aa2:	80 bc 24 4d 20 00 00 	cmpb   $0xa,0x204d(%esp)
 8049aa9:	0a 
 8049aaa:	0f 85 57 ff ff ff    	jne    8049a07 <submitr+0x575>
 8049ab0:	80 bc 24 4e 20 00 00 	cmpb   $0x0,0x204e(%esp)
 8049ab7:	00 
 8049ab8:	0f 85 49 ff ff ff    	jne    8049a07 <submitr+0x575>
 8049abe:	b9 00 20 00 00       	mov    $0x2000,%ecx
 8049ac3:	8d 94 24 4c 20 00 00 	lea    0x204c(%esp),%edx
 8049aca:	8d 44 24 40          	lea    0x40(%esp),%eax
 8049ace:	e8 eb f8 ff ff       	call   80493be <rio_readlineb>
 8049ad3:	85 c0                	test   %eax,%eax
 8049ad5:	7f 7b                	jg     8049b52 <submitr+0x6c0>
 8049ad7:	8b 44 24 14          	mov    0x14(%esp),%eax
 8049adb:	c7 00 45 72 72 6f    	movl   $0x6f727245,(%eax)
 8049ae1:	c7 40 04 72 3a 20 43 	movl   $0x43203a72,0x4(%eax)
 8049ae8:	c7 40 08 6c 69 65 6e 	movl   $0x6e65696c,0x8(%eax)
 8049aef:	c7 40 0c 74 20 75 6e 	movl   $0x6e752074,0xc(%eax)
 8049af6:	c7 40 10 61 62 6c 65 	movl   $0x656c6261,0x10(%eax)
 8049afd:	c7 40 14 20 74 6f 20 	movl   $0x206f7420,0x14(%eax)
 8049b04:	c7 40 18 72 65 61 64 	movl   $0x64616572,0x18(%eax)
 8049b0b:	c7 40 1c 20 73 74 61 	movl   $0x61747320,0x1c(%eax)
 8049b12:	c7 40 20 74 75 73 20 	movl   $0x20737574,0x20(%eax)
 8049b19:	c7 40 24 6d 65 73 73 	movl   $0x7373656d,0x24(%eax)
 8049b20:	c7 40 28 61 67 65 20 	movl   $0x20656761,0x28(%eax)
 8049b27:	c7 40 2c 66 72 6f 6d 	movl   $0x6d6f7266,0x2c(%eax)
 8049b2e:	c7 40 30 20 73 65 72 	movl   $0x72657320,0x30(%eax)
 8049b35:	c7 40 34 76 65 72 00 	movl   $0x726576,0x34(%eax)
 8049b3c:	83 ec 0c             	sub    $0xc,%esp
 8049b3f:	ff 74 24 10          	pushl  0x10(%esp)
 8049b43:	e8 58 ed ff ff       	call   80488a0 <close@plt>
 8049b48:	83 c4 10             	add    $0x10,%esp
 8049b4b:	b8 ff ff ff ff       	mov    $0xffffffff,%eax
 8049b50:	eb 4d                	jmp    8049b9f <submitr+0x70d>
 8049b52:	83 ec 08             	sub    $0x8,%esp
 8049b55:	8d 84 24 54 20 00 00 	lea    0x2054(%esp),%eax
 8049b5c:	50                   	push   %eax
 8049b5d:	8b 7c 24 20          	mov    0x20(%esp),%edi
 8049b61:	57                   	push   %edi
 8049b62:	e8 39 ec ff ff       	call   80487a0 <strcpy@plt>
 8049b67:	83 c4 04             	add    $0x4,%esp
 8049b6a:	ff 74 24 10          	pushl  0x10(%esp)
 8049b6e:	e8 2d ed ff ff       	call   80488a0 <close@plt>
 8049b73:	0f b6 17             	movzbl (%edi),%edx
 8049b76:	b8 4f 00 00 00       	mov    $0x4f,%eax
 8049b7b:	83 c4 10             	add    $0x10,%esp
 8049b7e:	29 d0                	sub    %edx,%eax
 8049b80:	75 13                	jne    8049b95 <submitr+0x703>
 8049b82:	0f b6 57 01          	movzbl 0x1(%edi),%edx
 8049b86:	b8 4b 00 00 00       	mov    $0x4b,%eax
 8049b8b:	29 d0                	sub    %edx,%eax
 8049b8d:	75 06                	jne    8049b95 <submitr+0x703>
 8049b8f:	0f b6 47 02          	movzbl 0x2(%edi),%eax
 8049b93:	f7 d8                	neg    %eax
 8049b95:	85 c0                	test   %eax,%eax
 8049b97:	0f 95 c0             	setne  %al
 8049b9a:	0f b6 c0             	movzbl %al,%eax
 8049b9d:	f7 d8                	neg    %eax
 8049b9f:	8b bc 24 4c a0 00 00 	mov    0xa04c(%esp),%edi
 8049ba6:	65 33 3d 14 00 00 00 	xor    %gs:0x14,%edi
 8049bad:	0f 84 b0 00 00 00    	je     8049c63 <submitr+0x7d1>
 8049bb3:	e9 a6 00 00 00       	jmp    8049c5e <submitr+0x7cc>
 8049bb8:	a1 d4 a3 04 08       	mov    0x804a3d4,%eax
 8049bbd:	8b 7c 24 14          	mov    0x14(%esp),%edi
 8049bc1:	89 07                	mov    %eax,(%edi)
 8049bc3:	a1 13 a4 04 08       	mov    0x804a413,%eax
 8049bc8:	89 47 3f             	mov    %eax,0x3f(%edi)
 8049bcb:	89 f8                	mov    %edi,%eax
 8049bcd:	83 c7 04             	add    $0x4,%edi
 8049bd0:	83 e7 fc             	and    $0xfffffffc,%edi
 8049bd3:	29 f8                	sub    %edi,%eax
 8049bd5:	be d4 a3 04 08       	mov    $0x804a3d4,%esi
 8049bda:	29 c6                	sub    %eax,%esi
 8049bdc:	83 c0 43             	add    $0x43,%eax
 8049bdf:	c1 e8 02             	shr    $0x2,%eax
 8049be2:	89 c1                	mov    %eax,%ecx
 8049be4:	f3 a5                	rep movsl %ds:(%esi),%es:(%edi)
 8049be6:	83 ec 0c             	sub    $0xc,%esp
 8049be9:	ff 74 24 10          	pushl  0x10(%esp)
 8049bed:	e8 ae ec ff ff       	call   80488a0 <close@plt>
 8049bf2:	83 c4 10             	add    $0x10,%esp
 8049bf5:	b8 ff ff ff ff       	mov    $0xffffffff,%eax
 8049bfa:	eb a3                	jmp    8049b9f <submitr+0x70d>
 8049bfc:	83 ec 0c             	sub    $0xc,%esp
 8049bff:	8d 84 24 58 40 00 00 	lea    0x4058(%esp),%eax
 8049c06:	50                   	push   %eax
 8049c07:	ff 74 24 20          	pushl  0x20(%esp)
 8049c0b:	ff 74 24 2c          	pushl  0x2c(%esp)
 8049c0f:	ff 74 24 24          	pushl  0x24(%esp)
 8049c13:	ff 74 24 24          	pushl  0x24(%esp)
 8049c17:	68 18 a4 04 08       	push   $0x804a418
 8049c1c:	68 00 20 00 00       	push   $0x2000
 8049c21:	6a 01                	push   $0x1
 8049c23:	8d bc 24 78 20 00 00 	lea    0x2078(%esp),%edi
 8049c2a:	57                   	push   %edi
 8049c2b:	e8 90 ec ff ff       	call   80488c0 <__sprintf_chk@plt>
 8049c30:	b8 00 00 00 00       	mov    $0x0,%eax
 8049c35:	b9 ff ff ff ff       	mov    $0xffffffff,%ecx
 8049c3a:	f2 ae                	repnz scas %es:(%edi),%al
 8049c3c:	f7 d1                	not    %ecx
 8049c3e:	8d 79 ff             	lea    -0x1(%ecx),%edi
 8049c41:	83 c4 30             	add    $0x30,%esp
 8049c44:	89 fb                	mov    %edi,%ebx
 8049c46:	8d b4 24 4c 20 00 00 	lea    0x204c(%esp),%esi
 8049c4d:	8b 6c 24 04          	mov    0x4(%esp),%ebp
 8049c51:	85 ff                	test   %edi,%edi
 8049c53:	0f 85 f9 fb ff ff    	jne    8049852 <submitr+0x3c0>
 8049c59:	e9 88 fc ff ff       	jmp    80498e6 <submitr+0x454>
 8049c5e:	e8 2d eb ff ff       	call   8048790 <__stack_chk_fail@plt>
 8049c63:	81 c4 5c a0 00 00    	add    $0xa05c,%esp
 8049c69:	5b                   	pop    %ebx
 8049c6a:	5e                   	pop    %esi
 8049c6b:	5f                   	pop    %edi
 8049c6c:	5d                   	pop    %ebp
 8049c6d:	c3                   	ret    

08049c6e <init_timeout>:
 8049c6e:	53                   	push   %ebx
 8049c6f:	83 ec 08             	sub    $0x8,%esp
 8049c72:	8b 5c 24 10          	mov    0x10(%esp),%ebx
 8049c76:	85 db                	test   %ebx,%ebx
 8049c78:	74 24                	je     8049c9e <init_timeout+0x30>
 8049c7a:	83 ec 08             	sub    $0x8,%esp
 8049c7d:	68 9b 93 04 08       	push   $0x804939b
 8049c82:	6a 0e                	push   $0xe
 8049c84:	e8 d7 ea ff ff       	call   8048760 <signal@plt>
 8049c89:	85 db                	test   %ebx,%ebx
 8049c8b:	b8 00 00 00 00       	mov    $0x0,%eax
 8049c90:	0f 48 d8             	cmovs  %eax,%ebx
 8049c93:	89 1c 24             	mov    %ebx,(%esp)
 8049c96:	e8 e5 ea ff ff       	call   8048780 <alarm@plt>
 8049c9b:	83 c4 10             	add    $0x10,%esp
 8049c9e:	83 c4 08             	add    $0x8,%esp
 8049ca1:	5b                   	pop    %ebx
 8049ca2:	c3                   	ret    

08049ca3 <init_driver>:
 8049ca3:	57                   	push   %edi
 8049ca4:	56                   	push   %esi
 8049ca5:	53                   	push   %ebx
 8049ca6:	83 ec 28             	sub    $0x28,%esp
 8049ca9:	8b 74 24 38          	mov    0x38(%esp),%esi
 8049cad:	65 a1 14 00 00 00    	mov    %gs:0x14,%eax
 8049cb3:	89 44 24 24          	mov    %eax,0x24(%esp)
 8049cb7:	31 c0                	xor    %eax,%eax
 8049cb9:	6a 01                	push   $0x1
 8049cbb:	6a 0d                	push   $0xd
 8049cbd:	e8 9e ea ff ff       	call   8048760 <signal@plt>
 8049cc2:	83 c4 08             	add    $0x8,%esp
 8049cc5:	6a 01                	push   $0x1
 8049cc7:	6a 1d                	push   $0x1d
 8049cc9:	e8 92 ea ff ff       	call   8048760 <signal@plt>
 8049cce:	83 c4 08             	add    $0x8,%esp
 8049cd1:	6a 01                	push   $0x1
 8049cd3:	6a 1d                	push   $0x1d
 8049cd5:	e8 86 ea ff ff       	call   8048760 <signal@plt>
 8049cda:	83 c4 0c             	add    $0xc,%esp
 8049cdd:	6a 00                	push   $0x0
 8049cdf:	6a 01                	push   $0x1
 8049ce1:	6a 02                	push   $0x2
 8049ce3:	e8 68 eb ff ff       	call   8048850 <socket@plt>
 8049ce8:	83 c4 10             	add    $0x10,%esp
 8049ceb:	85 c0                	test   %eax,%eax
 8049ced:	79 4e                	jns    8049d3d <init_driver+0x9a>
 8049cef:	c7 06 45 72 72 6f    	movl   $0x6f727245,(%esi)
 8049cf5:	c7 46 04 72 3a 20 43 	movl   $0x43203a72,0x4(%esi)
 8049cfc:	c7 46 08 6c 69 65 6e 	movl   $0x6e65696c,0x8(%esi)
 8049d03:	c7 46 0c 74 20 75 6e 	movl   $0x6e752074,0xc(%esi)
 8049d0a:	c7 46 10 61 62 6c 65 	movl   $0x656c6261,0x10(%esi)
 8049d11:	c7 46 14 20 74 6f 20 	movl   $0x206f7420,0x14(%esi)
 8049d18:	c7 46 18 63 72 65 61 	movl   $0x61657263,0x18(%esi)
 8049d1f:	c7 46 1c 74 65 20 73 	movl   $0x73206574,0x1c(%esi)
 8049d26:	c7 46 20 6f 63 6b 65 	movl   $0x656b636f,0x20(%esi)
 8049d2d:	66 c7 46 24 74 00    	movw   $0x74,0x24(%esi)
 8049d33:	b8 ff ff ff ff       	mov    $0xffffffff,%eax
 8049d38:	e9 1f 01 00 00       	jmp    8049e5c <init_driver+0x1b9>
 8049d3d:	89 c3                	mov    %eax,%ebx
 8049d3f:	83 ec 0c             	sub    $0xc,%esp
 8049d42:	68 b0 a4 04 08       	push   $0x804a4b0
 8049d47:	e8 24 eb ff ff       	call   8048870 <gethostbyname@plt>
 8049d4c:	83 c4 10             	add    $0x10,%esp
 8049d4f:	85 c0                	test   %eax,%eax
 8049d51:	75 6c                	jne    8049dbf <init_driver+0x11c>
 8049d53:	c7 06 45 72 72 6f    	movl   $0x6f727245,(%esi)
 8049d59:	c7 46 04 72 3a 20 44 	movl   $0x44203a72,0x4(%esi)
 8049d60:	c7 46 08 4e 53 20 69 	movl   $0x6920534e,0x8(%esi)
 8049d67:	c7 46 0c 73 20 75 6e 	movl   $0x6e752073,0xc(%esi)
 8049d6e:	c7 46 10 61 62 6c 65 	movl   $0x656c6261,0x10(%esi)
 8049d75:	c7 46 14 20 74 6f 20 	movl   $0x206f7420,0x14(%esi)
 8049d7c:	c7 46 18 72 65 73 6f 	movl   $0x6f736572,0x18(%esi)
 8049d83:	c7 46 1c 6c 76 65 20 	movl   $0x2065766c,0x1c(%esi)
 8049d8a:	c7 46 20 73 65 72 76 	movl   $0x76726573,0x20(%esi)
 8049d91:	c7 46 24 65 72 20 61 	movl   $0x61207265,0x24(%esi)
 8049d98:	c7 46 28 64 64 72 65 	movl   $0x65726464,0x28(%esi)
 8049d9f:	66 c7 46 2c 73 73    	movw   $0x7373,0x2c(%esi)
 8049da5:	c6 46 2e 00          	movb   $0x0,0x2e(%esi)
 8049da9:	83 ec 0c             	sub    $0xc,%esp
 8049dac:	53                   	push   %ebx
 8049dad:	e8 ee ea ff ff       	call   80488a0 <close@plt>
 8049db2:	83 c4 10             	add    $0x10,%esp
 8049db5:	b8 ff ff ff ff       	mov    $0xffffffff,%eax
 8049dba:	e9 9d 00 00 00       	jmp    8049e5c <init_driver+0x1b9>
 8049dbf:	8d 7c 24 0c          	lea    0xc(%esp),%edi
 8049dc3:	c7 44 24 0c 00 00 00 	movl   $0x0,0xc(%esp)
 8049dca:	00 
 8049dcb:	c7 44 24 10 00 00 00 	movl   $0x0,0x10(%esp)
 8049dd2:	00 
 8049dd3:	c7 44 24 14 00 00 00 	movl   $0x0,0x14(%esp)
 8049dda:	00 
 8049ddb:	c7 44 24 18 00 00 00 	movl   $0x0,0x18(%esp)
 8049de2:	00 
 8049de3:	66 c7 44 24 0c 02 00 	movw   $0x2,0xc(%esp)
 8049dea:	6a 0c                	push   $0xc
 8049dec:	ff 70 0c             	pushl  0xc(%eax)
 8049def:	8b 40 10             	mov    0x10(%eax),%eax
 8049df2:	ff 30                	pushl  (%eax)
 8049df4:	8d 44 24 1c          	lea    0x1c(%esp),%eax
 8049df8:	50                   	push   %eax
 8049df9:	e8 d2 e9 ff ff       	call   80487d0 <__memmove_chk@plt>
 8049dfe:	66 c7 44 24 1e 3b 6e 	movw   $0x6e3b,0x1e(%esp)
 8049e05:	83 c4 0c             	add    $0xc,%esp
 8049e08:	6a 10                	push   $0x10
 8049e0a:	57                   	push   %edi
 8049e0b:	53                   	push   %ebx
 8049e0c:	e8 7f ea ff ff       	call   8048890 <connect@plt>
 8049e11:	83 c4 10             	add    $0x10,%esp
 8049e14:	85 c0                	test   %eax,%eax
 8049e16:	79 2a                	jns    8049e42 <init_driver+0x19f>
 8049e18:	83 ec 0c             	sub    $0xc,%esp
 8049e1b:	68 b0 a4 04 08       	push   $0x804a4b0
 8049e20:	68 70 a4 04 08       	push   $0x804a470
 8049e25:	6a ff                	push   $0xffffffff
 8049e27:	6a 01                	push   $0x1
 8049e29:	56                   	push   %esi
 8049e2a:	e8 91 ea ff ff       	call   80488c0 <__sprintf_chk@plt>
 8049e2f:	83 c4 14             	add    $0x14,%esp
 8049e32:	53                   	push   %ebx
 8049e33:	e8 68 ea ff ff       	call   80488a0 <close@plt>
 8049e38:	83 c4 10             	add    $0x10,%esp
 8049e3b:	b8 ff ff ff ff       	mov    $0xffffffff,%eax
 8049e40:	eb 1a                	jmp    8049e5c <init_driver+0x1b9>
 8049e42:	83 ec 0c             	sub    $0xc,%esp
 8049e45:	53                   	push   %ebx
 8049e46:	e8 55 ea ff ff       	call   80488a0 <close@plt>
 8049e4b:	66 c7 06 4f 4b       	movw   $0x4b4f,(%esi)
 8049e50:	c6 46 02 00          	movb   $0x0,0x2(%esi)
 8049e54:	83 c4 10             	add    $0x10,%esp
 8049e57:	b8 00 00 00 00       	mov    $0x0,%eax
 8049e5c:	8b 54 24 1c          	mov    0x1c(%esp),%edx
 8049e60:	65 33 15 14 00 00 00 	xor    %gs:0x14,%edx
 8049e67:	74 05                	je     8049e6e <init_driver+0x1cb>
 8049e69:	e8 22 e9 ff ff       	call   8048790 <__stack_chk_fail@plt>
 8049e6e:	83 c4 20             	add    $0x20,%esp
 8049e71:	5b                   	pop    %ebx
 8049e72:	5e                   	pop    %esi
 8049e73:	5f                   	pop    %edi
 8049e74:	c3                   	ret    

08049e75 <driver_post>:
 8049e75:	53                   	push   %ebx
 8049e76:	83 ec 08             	sub    $0x8,%esp
 8049e79:	8b 44 24 10          	mov    0x10(%esp),%eax
 8049e7d:	8b 5c 24 20          	mov    0x20(%esp),%ebx
 8049e81:	83 7c 24 1c 00       	cmpl   $0x0,0x1c(%esp)
 8049e86:	74 26                	je     8049eae <driver_post+0x39>
 8049e88:	83 ec 04             	sub    $0x4,%esp
 8049e8b:	ff 74 24 1c          	pushl  0x1c(%esp)
 8049e8f:	68 c8 a4 04 08       	push   $0x804a4c8
 8049e94:	6a 01                	push   $0x1
 8049e96:	e8 a5 e9 ff ff       	call   8048840 <__printf_chk@plt>
 8049e9b:	66 c7 03 4f 4b       	movw   $0x4b4f,(%ebx)
 8049ea0:	c6 43 02 00          	movb   $0x0,0x2(%ebx)
 8049ea4:	83 c4 10             	add    $0x10,%esp
 8049ea7:	b8 00 00 00 00       	mov    $0x0,%eax
 8049eac:	eb 3f                	jmp    8049eed <driver_post+0x78>
 8049eae:	85 c0                	test   %eax,%eax
 8049eb0:	74 2d                	je     8049edf <driver_post+0x6a>
 8049eb2:	80 38 00             	cmpb   $0x0,(%eax)
 8049eb5:	74 28                	je     8049edf <driver_post+0x6a>
 8049eb7:	53                   	push   %ebx
 8049eb8:	ff 74 24 1c          	pushl  0x1c(%esp)
 8049ebc:	68 df a4 04 08       	push   $0x804a4df
 8049ec1:	ff 74 24 20          	pushl  0x20(%esp)
 8049ec5:	50                   	push   %eax
 8049ec6:	68 e7 a4 04 08       	push   $0x804a4e7
 8049ecb:	68 6e 3b 00 00       	push   $0x3b6e
 8049ed0:	68 b0 a4 04 08       	push   $0x804a4b0
 8049ed5:	e8 b8 f5 ff ff       	call   8049492 <submitr>
 8049eda:	83 c4 20             	add    $0x20,%esp
 8049edd:	eb 0e                	jmp    8049eed <driver_post+0x78>
 8049edf:	66 c7 03 4f 4b       	movw   $0x4b4f,(%ebx)
 8049ee4:	c6 43 02 00          	movb   $0x0,0x2(%ebx)
 8049ee8:	b8 00 00 00 00       	mov    $0x0,%eax
 8049eed:	83 c4 08             	add    $0x8,%esp
 8049ef0:	5b                   	pop    %ebx
 8049ef1:	c3                   	ret    
 8049ef2:	66 90                	xchg   %ax,%ax
 8049ef4:	66 90                	xchg   %ax,%ax
 8049ef6:	66 90                	xchg   %ax,%ax
 8049ef8:	66 90                	xchg   %ax,%ax
 8049efa:	66 90                	xchg   %ax,%ax
 8049efc:	66 90                	xchg   %ax,%ax
 8049efe:	66 90                	xchg   %ax,%ax

08049f00 <__libc_csu_init>:
 8049f00:	55                   	push   %ebp
 8049f01:	57                   	push   %edi
 8049f02:	56                   	push   %esi
 8049f03:	53                   	push   %ebx
 8049f04:	e8 07 ea ff ff       	call   8048910 <__x86.get_pc_thunk.bx>
 8049f09:	81 c3 f7 20 00 00    	add    $0x20f7,%ebx
 8049f0f:	83 ec 0c             	sub    $0xc,%esp
 8049f12:	8b 6c 24 20          	mov    0x20(%esp),%ebp
 8049f16:	8d b3 0c ff ff ff    	lea    -0xf4(%ebx),%esi
 8049f1c:	e8 d3 e7 ff ff       	call   80486f4 <_init>
 8049f21:	8d 83 08 ff ff ff    	lea    -0xf8(%ebx),%eax
 8049f27:	29 c6                	sub    %eax,%esi
 8049f29:	c1 fe 02             	sar    $0x2,%esi
 8049f2c:	85 f6                	test   %esi,%esi
 8049f2e:	74 25                	je     8049f55 <__libc_csu_init+0x55>
 8049f30:	31 ff                	xor    %edi,%edi
 8049f32:	8d b6 00 00 00 00    	lea    0x0(%esi),%esi
 8049f38:	83 ec 04             	sub    $0x4,%esp
 8049f3b:	ff 74 24 2c          	pushl  0x2c(%esp)
 8049f3f:	ff 74 24 2c          	pushl  0x2c(%esp)
 8049f43:	55                   	push   %ebp
 8049f44:	ff 94 bb 08 ff ff ff 	call   *-0xf8(%ebx,%edi,4)
 8049f4b:	83 c7 01             	add    $0x1,%edi
 8049f4e:	83 c4 10             	add    $0x10,%esp
 8049f51:	39 f7                	cmp    %esi,%edi
 8049f53:	75 e3                	jne    8049f38 <__libc_csu_init+0x38>
 8049f55:	83 c4 0c             	add    $0xc,%esp
 8049f58:	5b                   	pop    %ebx
 8049f59:	5e                   	pop    %esi
 8049f5a:	5f                   	pop    %edi
 8049f5b:	5d                   	pop    %ebp
 8049f5c:	c3                   	ret    
 8049f5d:	8d 76 00             	lea    0x0(%esi),%esi

08049f60 <__libc_csu_fini>:
 8049f60:	f3 c3                	repz ret 

Disassembly of section .fini:

08049f64 <_fini>:
 8049f64:	53                   	push   %ebx
 8049f65:	83 ec 08             	sub    $0x8,%esp
 8049f68:	e8 a3 e9 ff ff       	call   8048910 <__x86.get_pc_thunk.bx>
 8049f6d:	81 c3 93 20 00 00    	add    $0x2093,%ebx
 8049f73:	83 c4 08             	add    $0x8,%esp
 8049f76:	5b                   	pop    %ebx
 8049f77:	c3                   	ret    
